cpCore.Serialization
RawObjectConstructor
p1
(cpCore.Coordinates3
Coordinates3
p2
tRp3
(dp4
S'items'
p5
(lp6
F36.03402393465737
aF40.876261753812514
aF33.224650808262496
aF35.373981475078189
aF39.319627936487173
aF30.646055268519103
aF34.851724348524563
aF38.38779917940748
aF33.510680017583788
aF36.879431685926498
aF37.183966403637676
aF31.571403717714631
aF37.431069904774503
aF38.82931483850566
aF34.084965511363308
aF39.094756605953229
aF37.057526790602431
aF33.667768642827127
aF34.125868948970776
aF41.164593019984174
aF31.6791927588446
aF34.27386748171579
aF36.442912290553465
aF32.4769293428445
aF36.216727124133101
aF36.768383584999889
aF34.369301810929066
aF39.78735249346002
aF38.659383835426652
aF33.415731573703013
aF36.335749989910823
aF40.454729539812163
aF32.232484950131834
aF35.209992644667246
aF39.512062644648275
aF31.708544542004923
aF35.191358981509929
aF38.174942646695541
aF32.493010129603697
aF36.599900162895352
aF37.532941107671114
aF32.565759253526132
aF37.658629204516018
aF38.554572170877044
aF33.051067055888403
aF39.07819485471704
aF37.938248207313045
aF33.019361278391287
aF36.472807245444578
aF41.607876870484326
aF31.392892078425501
aF33.955630789432028
aF40.168168389742632
aF31.90223776628547
aF34.277902935767862
aF37.24554800716146
aF31.877848116829608
aF36.572668257752106
aF36.414702158683582
aF33.47900101260074
aF37.626780259985082
aF39.777374139590364
aF32.262681729225505
aF39.492435513759737
aF37.553723717066099
aF31.687608591679219
aF40.874599591593231
aF36.802286100022521
aF31.617431116613382
aF42.011529374447363
aF37.531509243754584
aF32.202918168072536
aF41.281600403844841
aF36.295826695972593
aF30.304974990930155
aF40.766917222189555
aF35.565561414509432
aF32.399683925569924
aF35.715390811414665
aF43.184916464897043
aF31.77756228151614
aF36.539617710933911
aF43.878200223775366
aF30.749570866113721
aF34.364129656564558
aF42.589808813681373
aF31.39517499736812
aF36.067673127575596
aF43.309155983937636
aF33.217446965371721
aF36.683700561499997
aF58.840534210199998
aF32.008602142299999
aF37.455970764200003
aF58.960182189900003
aF31.368776321399999
aF35.775699615500002
aF57.710533142099997
aF31.797601699800001
aF35.026142120400003
aF57.670124053999999
aF32.5879364014
aF35.053699493400003
aF57.796531677200001
aF30.437601089499999
aF35.801002502400003
aF57.803203582800002
aF29.6441345215
aF34.114700317400001
aF56.609531402599998
aF30.241600036600001
aF33.366779327400003
aF56.602458953899998
aF31.034484863300001
aF33.618000030499999
aF56.694244384800001
aF29.2750530243
aF34.687709808299999
aF55.682907104500003
aF30.275079727200001
aF34.270698547400002
aF59.081531524699997
aF30.329601287799999
aF34.948947906500003
aF59.929771423299997
aF30.422185897799999
aF33.769191741900002
aF59.121852874799998
aF29.3626651764
aF33.527427673299997
aF59.1227226257
aF31.125814437900001
aF36.561698913599997
aF56.3935317993
aF31.933601379399999
aF37.6406974792
aF56.300533294700003
aF31.3426017761
aF36.0037002563
aF55.472534179699998
aF32.713600158699997
aF35.075344085700003
aF55.652030944800003
aF33.068618774400001
aF36.688697814900003
aF54.248535156199999
aF33.144599914600001
aF37.717990875200002
aF54.260494232200003
aF32.786117553700002
aF36.703697204599997
aF54.138534545900001
aF34.670600891100001
aF35.685138702400003
aF53.921974182100001
aF34.992687225300003
aF37.321140289299997
aF53.2492790222
aF34.797451019299999
aF37.273696899400001
aF55.279533386200001
aF35.5156021118
aF37.029186248800002
aF55.046875
aF36.552028655999997
aF38.786697387700002
aF55.5065345764
aF35.385601043699999
aF39.031932830800002
aF55.739715576199998
aF34.349460601799997
aF39.086315155000001
aF56.336853027300002
aF36.025054931600003
aF39.317440032999997
aF54.604404449500002
aF35.689868926999999
aF36.832698821999998
aF56.657531738300001
aF35.203601837199997
aF35.751449585000003
aF56.7290000916
aF35.321475982700001
aF37.318794250499998
aF57.357727050800001
aF35.882968902599998
aF37.102619171100002
aF56.902122497599997
aF34.1762657166
aF35.976144587037403
aF53.065135440143422
aF32.457261647425511
aF34.85612300668307
aF52.700237237860648
aF32.822586909298302
aF36.596356762103859
aF52.49934441119342
aF31.421200132784978
aF37.535390932085484
aF52.814462392293379
aF31.198674644702507
aF35.996163184639649
aF51.479437069713811
aF30.55305430485453
aF34.913625113293818
aF51.61515452782681
aF30.525986490375139
aF36.522952774661846
aF51.632660785087708
aF29.117597111066225
aF37.612178892194777
aF51.658140636920137
aF29.142872257682736
aF36.241357339056734
aF50.740795280288886
aF28.56215943001796
aF36.028035636143223
aF52.834002880696261
aF28.333877289937931
aF36.591697692899999
aF54.094532012899997
aF28.5206012726
aF37.3530235291
aF54.213439941399997
aF29.291540145900001
aF36.197700500499998
aF55.196533203100003
aF27.748600006099998
aF36.650829315199999
aF56.175441741900002
aF27.905160903900001
aF35.213699340799998
aF55.030532836900001
aF26.7706012726
aF34.883121490500002
aF55.875057220499997
aF26.165954589799998
aF34.658699035600002
aF53.780532836900001
aF26.573600768999999
aF33.903488159200002
aF53.650878906199999
aF25.798393249499998
aF35.050697326700003
aF52.699531555199997
aF27.346601486200001
aF34.604185769171444
aF51.732075225709508
aF27.166790385096903
aF36.282761386135576
aF50.065788468388213
aF31.0641851210349
aF37.442977910010832
aF49.637583124421404
aF31.084590484160124
aF35.191686328305948
aF49.326338219870287
aF31.432780113571152
aF34.319899666887103
aF49.76091434305895
aF31.19234359209808
aF35.23666844615456
aF47.905986341796705
aF31.134050979775761
aF36.081843724338874
aF47.454720531654104
aF31.732233835450014
aF33.903749108483986
aF47.299585304950106
aF31.592848474582439
aF33.762225600090545
aF47.543328406812549
aF32.680286454257477
aF33.069091393908472
aF47.765115512078609
aF31.007074732523961
aF33.812692641231088
aF45.81168631924136
aF31.441323028704581
aF34.639459078983272
aF45.018961219346629
aF32.02467986866494
aF32.859706437480654
aF45.321243483879407
aF30.752406107848156
aF35.487665218832632
aF47.561692928774498
aF29.654128640396259
aF35.204617576744006
aF48.409749248435261
aF28.788769544543442
aF36.028703233998002
aF46.31581074227676
aF29.332663788027006
aF36.211416240190616
aF45.619902400486396
aF30.065836215770894
aF36.205487286383367
aF45.887912519892005
aF27.940408551796402
aF36.15077319109183
aF46.765600763049264
aF27.297196836727363
aF37.60762849414138
aF45.27435303698649
aF27.748854098062271
aF38.316665617847875
aF45.887027065150122
aF28.301978299970873
aF37.640270280139696
aF44.275016835926294
aF28.187519195432824
aF38.086146044358294
aF45.211392159978672
aF26.281310767595627
aF37.988983660826229
aF46.194288869164509
aF25.824887448978053
aF39.557148251920509
aF44.821606974940956
aF26.241358701824822
aF39.654050922711505
aF43.79159607111405
aF26.581648258879767
aF39.94249486834979
aF44.910342713023525
aF25.226678791012333
aF40.142240416966168
aF45.478357160696099
aF26.88352341776535
aF37.349979730316086
aF44.190725082652698
aF25.409136172497949
aF36.344719863400961
aF44.531301010899831
aF25.184991144615118
aF37.873514088627189
aF44.05775692539126
aF24.463662464886841
aF37.300529934513989
aF43.228173067364608
aF25.923150221817576
aF35.082563060662459
aF44.942245316891267
aF27.497118744086503
aF34.372550382404711
aF45.259746940996244
aF26.529762008881651
aF34.913404014580813
aF43.80845713340112
aF28.246610685913843
aF35.587775050444328
aF43.630394571065708
aF28.964998065014324
aF34.242680773192355
aF42.691489616627408
aF27.638779123479345
aF34.534109026271089
aF42.588188495020944
aF26.548177877751147
aF34.551981352089392
aF41.350296126155385
aF28.311272714936599
aF34.359258609730865
aF41.412369137548424
aF29.415360421175919
aF33.880586852491653
aF40.571751834198544
aF27.867066257603149
aF35.972306010172296
aF40.898198584331197
aF28.06576702787412
aF36.31774802726936
aF40.469278064401571
aF26.919085041923648
aF36.846934593021508
aF40.856934649270883
aF28.998116534874143
aF36.607517289981452
aF41.372832807774884
aF30.376356856676249
aF32.73305423674644
aF42.950286649533886
aF27.7499265597327
aF32.189834860808638
aF43.067230325173057
aF28.851613297704432
aF32.038800603715032
aF43.10396781515508
aF26.55723184860652
aF32.520439291228527
aF43.032870739901441
aF25.654333813288378
aF30.643107511009873
aF43.536228805744187
aF26.534947085722514
aF30.192464317759672
aF43.191683509235453
aF25.603208456775373
aF30.097276739294525
aF43.069290341723516
aF27.356700550754372
aF30.437984276199007
aF45.059712915370312
aF26.625602865373196
aF29.295292708322211
aF45.506274206540198
aF26.601699752508754
aF31.495669210581603
aF45.876101806702067
aF26.674837326561278
aF32.420417954424792
aF45.46058999796216
aF26.718923246505252
aF31.393490423886703
aF47.353060949853571
aF26.64852246366328
aF30.34904350075016
aF47.646116052235996
aF26.545775559765971
aF31.896067833164334
aF47.96316576586598
aF27.97088600218823
aF32.863841938568896
aF47.530036548653513
aF28.21511468969581
aF32.037369514201316
aF49.49150986359799
aF27.926319530578976
aF31.089961781907032
aF49.953591401379711
aF27.652645192084741
aF32.349340072277187
aF49.855683160515248
aF28.905739982380833
aF32.805051517863475
aF49.780986300078887
aF27.209482583283506
aF30.90619550847607
aF47.622891676102576
aF29.087378109665632
aF30.949591194952497
aF46.556797025185247
aF29.307074105451555
aF31.165384983350357
aF48.171740282060654
aF29.986578206317155
aF29.893001122253434
aF47.893262844094913
aF28.797611600519655
aF32.093576887756107
aF47.94651252325589
aF25.430363428665171
aF31.487733103091376
aF48.732824028300492
aF24.709917827794033
aF33.325634278982392
aF47.528670926174989
aF25.142880559049051
aF33.764359810588942
aF46.870672645240404
aF25.778521397971019
aF34.080451469601556
aF47.956397332997518
aF23.954118902247142
aF33.757816422731302
aF48.957249650691651
aF23.667549083199038
aF35.582272624564972
aF48.033541612887888
aF24.316730409236197
aF35.884534517224701
aF47.093425009571398
aF24.780626515674076
aF36.428950367392098
aF48.238516752828026
aF23.054392208767329
aF36.066555023200003
aF49.122055053700002
aF22.533914566
aF37.481652365648905
aF48.355329510429115
aF23.304857465630629
aF36.348037808205056
aF47.380794389868313
aF22.38818052486047
aF35.807453896873952
aF49.189285202927422
aF25.323087165859281
aF35.527854521183215
aF50.135036509933592
aF24.856424396196097
aF35.160148281747745
aF49.044939467025223
aF26.187126351454307
aF37.240553156081553
aF49.31411107183137
aF25.853140799182679
aF37.920740267354425
aF49.624292364621866
aF25.061176855459074
aF37.265006107775804
aF50.06700547794599
aF26.63756673181177
aF37.570470298462929
aF48.36734168449793
aF26.274300935404209
aF33.789997133690512
aF47.041489439303774
aF22.751351327170354
aF33.7446975708
aF47.479534149199999
aF21.602600097700002
aF33.571972039073366
aF45.7559921536538
aF23.00131523268702
aF33.592840429891922
aF45.431012619317137
aF23.958602489645831
aF33.252910384094122
aF44.7656232142809
aF21.968439981490846
aF32.5505981445
aF45.197769164999997
aF21.2529067993
aF34.530844990674858
aF44.386581603890505
aF21.196163028387058
aF34.970647537404133
aF45.298787762308997
aF20.797191933371234
aF35.575597605064409
aF43.676310263055313
aF22.053748515866953
aF35.1334592579624
aF42.812299023496152
aF22.539805695799487
aF36.411699695202806
aF43.348579678967525
aF21.437381792860599
aF35.944640260183021
aF44.358790874899739
aF22.815564917139458
aF34.2356987
aF43.554534912100003
aF20.107601165799998
aF35.058479309100001
aF43.321392059300003
aF19.671394348100002
aF32.568826580025075
aF43.557735048455761
aF22.608149908173001
aF32.511979773970388
aF43.438500331207251
aF23.833604956429514
aF32.052492772649039
aF42.656581729140221
aF21.789425258391894
aF32.1544151306
aF42.818538665799998
aF20.796367645299998
aF31.212745627107932
aF41.515797100042228
aF22.146150876247212
aF30.469811673618505
aF41.867108355531016
aF22.859390196997136
aF30.493698120099999
aF41.100532531699997
aF20.856601715099998
aF30.219261169399999
aF42.003005981400001
aF20.310407638499999
aF31.209409713700001
aF40.524803161599998
aF20.269752502399999
aF29.261697769200001
aF40.2685317993
aF21.102600097700002
aF28.779699325599999
aF40.208534240699997
aF22.249601364099998
aF28.741699218800001
aF39.657531738300001
aF20.1406002045
aF31.960853452125907
aF40.339818887325194
aF22.815244051301274
aF31.420354735327351
aF39.26154444905152
aF23.036524422349203
aF33.216685083663968
aF40.521783274391673
aF23.22350804850689
aF33.635677675034444
aF41.430842093636478
aF23.089317182103734
aF34.068476617795014
aF39.453736681602685
aF23.780479235051651
aF34.063726773995207
aF38.631191368588702
aF23.065416858916588
aF35.517042883066459
aF39.943901620617375
aF23.901263863752636
aF36.093827601286371
aF39.233927446023223
aF24.488026785661294
aF36.183980811958307
aF40.083064124791584
aF22.532185252413203
aF35.549824106701088
aF40.646745669534752
aF21.850203149769168
aF37.137051066951429
aF40.594144842753757
aF22.643544077368929
aF36.362993148496976
aF39.098140813218592
aF22.110115612737832
aF35.564403742358103
aF41.206294929797629
aF24.520709100876054
aF35.889455279028972
aF41.042485611283993
aF25.434490460244561
aF33.568666395109538
aF38.851528826695265
aF25.107352104079485
aF34.061405496407438
aF37.801097957506222
aF25.523527328539867
aF32.528101888223702
aF39.423764278688161
aF25.729470990544186
aF32.13105880299846
aF40.241989491343837
aF25.294148578055278
aF31.768369362983179
aF38.777314529516268
aF26.80607542813928
aF32.471969399036062
aF38.417011059914266
aF27.557232393197989
aF30.856398114592849
aF39.812078942184137
aF27.475625712228439
aF30.204963027194125
aF40.280397939647976
aF26.738820403841682
aF30.240352223954002
aF39.323203617621907
aF28.231478276352178
aF31.456865108922397
aF40.572481792376749
aF27.966973688519161
aF30.954287813921027
aF37.556570428333735
aF26.325153280638876
aF30.810650544222316
aF36.598396687955827
aF27.08993470830373
aF30.490428878514496
aF37.544797941663226
aF25.067438398969944
aF30.675914210305645
aF38.339709278782337
aF24.459665797501668
aF29.886620655262337
aF36.36720642070614
aF24.428519218348672
aF29.062734957307345
aF36.012835676307077
aF25.051126796271095
aF29.311698913600001
aF36.750534057599999
aF23.0356006622
aF28.527456283599999
aF37.493278503399999
aF23.181858062700002
aF30.1122817993
aF37.181667327900001
aF22.436733245799999
aF28.741699218800001
aF35.548534393300002
aF22.257600784299999
aF28.600219726599999
aF35.842388153100003
aF21.217536926299999
aF29.486425399800002
aF34.754489898700001
aF22.3121852875
aF27.433698654200001
aF35.050533294700003
aF22.821599960299999
aF26.844697952299999
aF35.7415351868
aF23.704601287799999
aF26.959699630700001
aF33.981533050499998
aF22.385601043699999
aF30.932962565550515
aF35.241239314995227
aF24.343123686756762
aF30.648481186391461
aF34.09542551958436
aF24.687730827653418
aF32.176267869595264
aF35.550658316612548
aF23.961344774519404
aF32.365947728709699
aF36.500961374691457
aF23.67272538062851
aF33.255949432956378
aF34.557881910698597
aF23.914107706244796
aF32.8992080688
aF33.683700561499997
aF23.373216629000002
aF34.463905387779981
aF35.129441462118365
aF23.166142527718925
aF34.787096026919507
aF36.03597711929276
aF23.676307503538855
aF35.280364756309027
aF34.409394804372859
aF23.239785369602259
aF34.282142639200003
aF35.446514129599997
aF21.690687179600001
aF35.118968963599997
aF36.411243438699998
aF21.111139297499999
aF35.784308013530676
aF36.969608320918859
aF21.740107496214112
aF35.085697174099998
aF36.627532959
aF19.723600387600001
aF35.750747680700002
aF37.352073669399999
aF19.2536506653
aF34.159698486300002
aF35.945533752400003
aF18.9616012573
aF34.121700286900001
aF36.230533599899999
aF17.607601165799998
aF34.765769958500002
aF36.892353057900003
aF17.345363616899999
aF33.292697906500003
aF35.0185317993
aF19.508600234999999
aF32.562610626199998
aF34.496906280499999
aF18.889751434299999
aF33.362697601299999
aF34.7555351257
aF20.872600555399998
aF32.688758850100001
aF34.026401519799997
aF21.322343826299999
aF33.663704594028999
aF34.036668314288981
aF25.298677400876986
aF33.887263989936002
aF32.832664907989191
aF25.442324931250113
aF33.696271496492606
aF34.886515511721029
aF26.334058204437444
aF33.556579073729985
aF35.875978972857745
aF26.1582075096441
aF33.906470703754451
aF34.42380812830114
aF27.71514364072948
aF34.849814201861584
aF33.879532173701186
aF27.768190334570505
aF33.985785411753199
aF35.605190281061653
aF28.690647422755298
aF33.22650091978705
aF36.341080181065983
aF28.432387117021197
aF33.771475014087727
aF35.242835922704963
aF29.696738055449519
aF35.329757079532691
aF36.281002475776312
aF28.752218511342573
aF36.533011995619503
aF35.670021400231647
aF29.116829419144509
aF37.452351905014908
aF36.656948285791366
aF29.138194588178813
aF38.50108231722615
aF36.536874354617311
aF29.392339252218452
aF36.879039450162324
aF37.831267649777793
aF28.831984762548661
aF37.34551874034095
aF38.738899084059298
aF28.81787074935605
aF35.548035398747238
aF37.610853952173365
aF28.568842906517624
aF34.811571090598299
aF38.356063168555174
aF28.310400015474347
aF32.811402713976221
aF33.440638713419375
aF28.145988519070325
aF33.136293200719699
aF32.375763013765173
aF28.669420433184364
aF31.5388887982993
aF33.73247342032176
aF27.849603863994432
aF31.336311621896343
aF34.623290568905766
aF27.408486170251685
aF30.420632854279308
aF32.817364878655965
aF28.102335317321909
aF30.384042215565888
aF32.591830084455054
aF29.168311782626716
aF29.097715815281418
aF33.485125137530488
aF27.689028185628601
aF28.844266218216106
aF34.249251335922047
aF28.422633435195198
aF29.234417358502931
aF34.000769871675743
aF26.740978382809164
aF27.9266986847
aF32.5225334167
aF27.547601699800001
aF27.5566978455
aF31.748533248899999
aF28.630599975599999
aF28.120914459200002
aF31.789791107199999
aF29.562297821000001
aF26.455698013300001
aF30.913534164400001
aF28.523601532000001
aF26.133378982499998
aF30.345478057899999
aF29.3962535858
aF25.766698837300002
aF30.795534133899999
aF27.326601028399999
aF24.935688018800001
aF30.098228454600001
aF27.220357894900001
aF26.147699356099999
aF31.5765323639
aF26.2636013031
aF25.583114624
aF31.4965610504
aF25.334650039700001
aF27.217699050899999
aF32.448532104500003
aF26.349601745600001
aF27.4919929504
aF33.0610389709
aF25.490705490100002
aF30.582698822000001
aF31.487533569299998
aF27.358600616499999
aF30.503698349
aF30.410533905000001
aF27.9566001892
aF30.799697876
aF31.536533355700001
aF26.041601181000001
aF30.813447952299999
aF32.4119911194
aF25.538129806499999
aF30.916698455799999
aF30.2765331268
aF25.2656002045
aF30.019477844200001
aF29.6764335632
aF25.417169570900001
aF31.074699401899998
aF30.549533843999999
aF23.7706012726
aF31.944984435999999
aF31.191459655799999
aF23.634099960299999
aF31.244289398199999
aF29.596857070900001
aF23.2688579559
aF29.841699600199998
aF31.228532791100001
aF23.171600341800001
aF28.982160568200001
aF30.5812263489
aF23.345638275100001
aF29.693206787099999
aF32.175956726099997
aF23.689714431799999
aF29.989698409999999
aF31.485532760600002
aF21.674600601200002
aF30.901222228999998
aF32.050506591800001
aF21.479593276999999
aF30.026262283299999
aF30.539888382000001
aF21.133750915499999
aF28.840698242199998
aF32.262535095200001
aF21.187601089499999
aF28.111680984500001
aF32.545021057100001
aF21.827001571699999
aF28.7306995392
aF32.608531951899998
aF19.9036006927
aF29.639698028600002
aF32.233531951899998
aF19.039600372300001
aF30.426704406700001
aF31.6803016663
aF19.347263336200001
aF29.549833297700001
aF32.499168396000002
aF18.069311142
aF27.6786994934
aF33.335533142099997
aF19.564599990800001
aF27.004924774199999
aF33.6020545959
aF20.268232345600001
aF27.554176330600001
aF33.620685577400003
aF18.603725433299999
aF32.054698944099997
aF29.426532745399999
aF25.805601119999999
aF31.935699462900001
aF28.195533752399999
aF25.921600341800001
aF33.166698455800002
aF30.0595340729
aF26.125600814799999
aF33.260135650599999
aF31.057117462200001
aF25.998344421399999
aF34.334697723399998
aF29.305532455400002
aF26.601600647000001
aF34.484790801999999
aF28.455217361500001
aF25.936367034900002
aF35.585697174099998
aF30.168533325199999
aF26.576601028399999
aF35.458506654268966
aF31.02823523998881
aF27.23635346848728
aF36.441440582299997
aF29.578399658199999
aF26.904546737699999
aF35.759857177699999
aF30.527536392199998
aF25.562261581400001
aF34.0867004395
aF28.745532989499999
aF27.999601364099998
aF34.444698333700003
aF27.5735340118
aF28.273601532000001
aF33.466697692899999
aF29.511533737200001
aF28.9066009521
aF33.214607238799999
aF30.472965240499999
aF28.695802688600001
aF33.174697876000003
aF28.960533142100001
aF30.218601226800001
aF34.0719413757
aF28.484922409100001
aF30.614639282199999
aF32.704166412399999
aF30.0481414795
aF31.194316864000001
aF31.993811579989448
aF30.71334012607204
aF30.699944395480443
aF32.196025848399998
aF29.583772659299999
aF32.044624328600001
aF33.814051249250525
aF30.83116915366028
aF31.793540561525315
aF33.957645857971194
aF32.172614082561729
aF31.744277392588796
aF33.270401787208648
aF32.845987338695586
aF31.246341482579727
aF35.084469434863983
aF32.544370183651594
aF32.445761689750832
aF35.339049344084287
aF33.513341208210136
aF32.616444043363586
aF35.73711885085411
aF31.441485578610781
aF32.951476788068732
aF36.917740567716393
aF31.296150402734852
aF33.684260870336274
aF37.505225189340287
aF32.159306096045334
aF33.957100576540185
aF37.308337712059888
aF30.005733387452096
aF34.060459476622412
aF38.209045410199998
aF29.8392982483
aF34.6369743347
aF36.504699707
aF28.912532806400002
aF33.708599090600003
aF36.812812805199997
aF27.916904449499999
aF34.027797698999997
aF35.3546981812
aF29.0255336761
aF32.987602233899999
aF34.7857589722
aF28.1260585785
aF32.7523269653
aF34.933014970223972
aF30.318266355082507
aF32.572107567224045
aF32.153697967500001
aF27.849533081099999
aF30.150600433299999
aF32.315700530999997
aF26.869533538799999
aF30.8886013031
aF31.166698455799999
aF28.0015335083
aF29.2876014709
aF31.037124633800001
aF28.849397659299999
aF28.754276275599999
aF30.156698226900001
aF26.927534103399999
aF29.1546001434
aF29.724182128900001
aF26.6821727753
aF30.124563217199999
aF29.044698715199999
aF27.417533874499998
aF28.235601425199999
aF28.635774612399999
aF28.3313446045
aF28.666681289700001
aF29.489343643200002
aF27.641197204600001
aF27.265876769999998
aF27.9286994934
aF26.396533966100002
aF28.058601379399999
aF28.360542297399999
aF25.4506263733
aF27.731685638399998
aF27.422641754200001
aF26.2536029816
aF29.013366699199999
aF26.9286994934
aF26.8805332184
aF27.023601532000001
aF26.6716098785
aF27.911663055399998
aF27.266042709400001
aF27.416065216100002
aF26.847625732400001
aF26.049182891800001
aF25.661699294999998
aF26.037532806400002
aF26.985601425199999
aF25.166940689099999
aF26.260574340800002
aF26.040313720699999
aF25.980360031099998
aF24.995168685900001
aF26.991226196300001
aF24.720699310299999
aF26.270532608
aF28.100601196300001
aF24.424964904799999
aF27.236251831099999
aF28.0953063965
aF23.9150867462
aF25.671110153200001
aF27.992061615000001
aF25.178823471099999
aF26.063505172700001
aF28.976591110200001
aF30.8056983948
aF25.655532836900001
aF28.6566009521
aF30.537698745699998
aF24.5605335236
aF29.147600174000001
aF33.913700103799997
aF24.707532882700001
aF29.0136013031
aF33.9560089111
aF25.703441619900001
aF28.8508892059
aF34.730697631799998
aF24.1445331573
aF30.091600418100001
aF35.453441619899998
aF23.4248771667
aF29.707109451299999
aF35.4946975708
aF25.3075332642
aF30.742601394699999
aF36.009086608899999
aF25.793798446699999
aF29.913717269900001
aF34.762382507300003
aF25.993810653699999
aF31.167854309100001
aF36.513698577900001
aF24.918533325199999
aF31.817600250200002
aF35.998336792000003
aF24.423702240000001
aF32.640792846700002
aF37.565700530999997
aF23.960533142100001
aF31.219600677500001
aF38.081832885700003
aF24.454862594600002
aF30.396593093900002
aF38.287918090799998
aF23.687229156499999
aF31.988889694200001
aF37.0713615417
aF23.061971664400001
aF30.850389480600001
aF37.280696868900002
aF25.981533050500001
aF32.504600524899999
aF36.592220306400002
aF26.654848098799999
aF33.015232086200001
aF37.954746246299997
aF25.5309238434
aF33.233100891100001
aF37.860839843800001
aF26.542856216400001
aF31.772172927900002
aF33.865699768100001
aF23.3805332184
aF31.0666007996
aF34.115699768100001
aF22.2535324097
aF31.452600479099999
aF25.837697982800002
aF26.305532455400002
aF33.285602569600002
aF26.385816574100001
aF25.490688324000001
aF33.049602508500001
aF26.261697769200001
aF27.606533050500001
aF32.755599975599999
aF26.005193710299999
aF28.418729782100002
aF33.435775756799998
aF27.765699386600001
aF27.6825332642
aF32.444599151600002
aF27.986078262300001
aF26.947330474899999
aF31.6706447601
aF28.193698883100001
aF29.061532974199999
aF31.969600677500001
aF27.974042892500002
aF29.7972583771
aF32.743270873999997
aF29.264169692999999
aF29.059598922700001
aF31.764198303200001
aF27.6502361298
aF29.318029403699999
aF31.060228347799999
aF28.599699020399999
aF27.2535324097
aF33.6595993042
aF28.3496456146
aF26.2272491455
aF33.928516387899997
aF29.659753799400001
aF27.3161640167
aF33.4137115479
aF28.3828105927
aF27.912094116199999
aF34.500644683799997
aF25.4316978455
aF27.9505329132
aF31.525600433299999
aF25.812698364300001
aF27.725532531700001
aF30.373600006099998
aF22.789699554399999
aF31.243534088099999
aF29.8946018219
aF22.234779357899999
aF30.7930755615
aF29.180982589700001
aF22.916698455799999
aF32.695533752400003
aF29.857601165799998
aF23.963119506799998
aF32.974884033199999
aF29.734853744500001
aF22.114698409999999
aF33.266532897899999
aF28.678600311299999
aF21.1292896271
aF32.800647735600002
aF28.674264907800001
aF22.00715065
aF34.341510772699998
aF28.8233661652
aF22.812698364300001
aF32.998535156199999
aF27.3386001587
aF23.840284347499999
aF33.355915069600002
aF27.405277252200001
aF22.813425064099999
aF31.923799514799999
aF27.156812667800001
aF22.1066989899
aF33.702533721899997
aF26.198600768999999
aF21.0566062927
aF33.410488128700003
aF26.187839508100001
aF22.181930542
aF34.781051635700003
aF26.3373088837
aF22.702697753900001
aF33.353534698499999
aF24.9116001129
aF22.179187774700001
aF32.680446624799998
aF24.370313644399999
aF23.8556995392
aF33.812534332299997
aF24.415601730300001
aF24.577697753900001
aF34.702533721899997
aF25.0836009979
aF24.255130767800001
aF35.040142059300003
aF25.979185104399999
aF25.446668624899999
aF35.038471221899997
aF24.693555831899999
aF24.279699325599999
aF33.4035339355
aF23.233600616499999
aF23.729774475100001
aF32.741989135700003
aF22.704412460299999
aF25.151920318599998
aF33.754180908199999
aF22.864313125599999
aF22.4976978302
aF33.354534149199999
aF31.175600051899998
aF23.158699035600002
aF34.287532806400002
aF31.633600234999999
aF22.718698501599999
aF32.053531646700002
aF34.276599883999999
aF22.381547927900002
aF31.244977950999999
aF33.773941039999997
aF23.795698165899999
aF31.864532470699999
aF35.257602691700001
aF23.466291427600002
aF32.205947876000003
aF36.238941192600002
aF24.175699234
aF30.3805332184
aF35.356601715099998
aF23.346197128299998
aF29.7814044952
aF35.732196807900003
aF24.502393722499999
aF29.985301971399998
aF34.394748687700002
aF25.335699081400001
aF30.178533554099999
aF36.328601837199997
aF25.0546989441
aF30.102533340499999
aF37.704601287800003
aF24.0246677399
aF30.188531875599999
aF38.050636291499998
aF26.0726985931
aF29.920534133899999
aF38.612602233899999
aF25.796541214000001
aF29.866168975800001
aF39.665634155299998
aF27.400699615499999
aF29.8075332642
aF38.238601684599999
aF28.2148075104
aF29.676954269399999
aF38.951538085899998
aF27.674697876
aF29.868534088099999
aF36.865600585899998
aF28.706613540599999
aF29.757448196399999
aF36.532562255899997
aF26.654699325599999
aF30.067533492999999
aF35.928600311300002
aF26.895149231000001
aF30.137002944900001
aF34.867725372300001
aF24.983697891199999
aF32.7415351868
aF34.928600311300002
aF25.640699386600001
aF33.304534912100003
aF35.814601898200003
aF25.233697891199999
aF32.922534942600002
aF33.629600524899999
aF24.664299011200001
aF32.4622879028
aF32.933860778800003
aF26.406698226900001
aF33.667533874500002
aF33.181602478000002
aF27.303050994900001
aF33.289535522500003
aF33.673301696800003
aF26.5726985931
aF33.5065345764
aF31.676601409900002
aF26.656171798700001
aF32.442203521700002
aF31.4567508698
aF25.716735839799998
aF33.920982360799997
aF31.144004821799999
aF27.753946493634249
aF34.288835979729633
aF31.130569481153636
aF27.597112461234939
aF35.357130012343475
aF30.559490427547928
aF28.950595858286913
aF33.777967813603674
aF31.29174524607566
aF29.740694623197527
aF34.374591412677155
aF31.065625305660028
aF29.105721655235495
aF32.950997370452164
aF31.826944560792892
aF26.335699081400001
aF35.1115341187
aF33.632602691700001
aF27.389664809247066
aF35.740723940316997
aF33.73513971770992
aF25.150699615499999
aF35.656532287600001
aF33.974601745599998
aF24.261407852200001
aF35.193344116200002
aF33.853286743200002
aF25.154699325599999
aF37.050533294700003
aF34.492599487299998
aF25.660872281147146
aF37.699044301583804
aF33.775454170947476
aF23.713699340800002
aF37.550533294700003
aF34.679599762000002
aF23.196838378900001
aF36.796554565400001
aF35.273292541499998
aF23.777173995999998
aF38.4787216187
aF35.247528076199998
aF22.949699401899998
aF37.794532775900002
aF33.401599883999999
aF22.853086471600001
aF36.851810455299997
aF32.863048553500001
aF21.9598903656
aF38.156795501700003
aF33.679347991900002
aF23.635698318500001
aF38.824531555199997
aF32.505599975599999
aF23.913698196399999
aF39.919532775900002
aF33.075599670400003
aF23.904699325599999
aF38.558532714800002
aF31.301601409900002
aF25.934698104900001
aF37.1305351257
aF35.788600921600001
aF26.555912871322274
aF38.171421304461425
aF36.025442205833315
aF26.058698654200001
aF36.059532165500002
aF36.562599182100001
aF25.512435913099999
aF35.2351379395
aF36.357490539600001
aF26.906698226900001
aF36.052532196000001
aF37.7625999451
aF26.8311252594
aF37.014446258500001
aF38.269660949699997
aF26.468698501599999
aF34.950534820599998
aF38.734600067099997
aF26.5813217163
aF34.007144928000002
aF38.200344085700003
aF27.169250488300001
aF34.980766296399999
aF39.569114685099997
aF25.045698165899999
aF35.067531585700003
aF39.2625999451
aF24.999458313000002
aF35.851219177200001
aF40.018775939900003
aF24.3980064392
aF35.331390380899997
aF38.4265518188
aF24.546699523899999
aF33.779533386200001
aF39.871601104699998
aF25.243698120099999
aF33.067531585700003
aF40.613601684599999
aF23.283699035600002
aF33.466533660899998
aF39.571601867699997
aF22.8752536774
aF32.619663238500003
aF39.940498352100001
aF22.742639541599999
aF34.078094482399997
aF38.977169036900001
aF28.409914717392716
aF35.895220309462594
aF37.447111656449877
aF29.232955888182222
aF36.037512575191279
aF38.352498866691228
aF28.785511517426954
aF35.627753318186933
aF36.190080441291222
aF28.051447274952359
aF35.555238941762873
aF35.495043528746812
aF30.168983923646536
aF35.456266168919171
aF35.724631342900338
aF30.823912343190962
aF35.299392166935093
aF36.58250345765655
aF30.253284774631393
aF34.221777871833787
aF34.809714792243348
aF29.637531868551175
aF34.40895477363879
aF33.931188267728004
aF31.284607039782568
aF34.140575516317469
aF34.465566662670668
aF29.857156866296901
aF32.858324043611368
aF35.403930844747094
aF28.809528350800001
aF32.847743987999998
aF35.714584350599999
aF30.045903734303678
aF31.819358119473392
aF34.294999414936377
aF31.084034778641012
aF31.811601420921132
aF33.957253691331125
aF29.790887832599999
aF30.834247589099999
aF34.660079956099999
aF29.396203845863681
aF32.051389746447896
aF33.457519283763411
aF30.727631366747282
aF32.487519758419189
aF36.602769103041574
aF30.628544255519582
aF33.242865796244608
aF37.378197380040895
aF30.3949642181
aF31.5421638489
aF37.023071289100002
aF31.77113657201545
aF32.404568819727139
aF36.301979362261442
aF30.730496461639476
aF36.67688412700727
aF34.972711686348831
aF31.950038338783969
aF36.84993281732649
aF34.928503427470503
aF29.892728855304348
aF37.534197238814954
aF34.377072208140277
aF28.904224038937606
aF37.309872020569742
aF34.372325864584859
aF30.357789911496571
aF38.762504228314121
aF33.70108451504796
aF31.046045179661402
aF38.483478907927839
aF32.900880293464205
aF29.169694373707955
aF39.512079817125283
aF33.088188799217995
aF28.40574259277518
aF39.672770513645183
aF33.851822789990401
aF29.519101255586921
aF40.480190338007951
aF32.734216959384881
aF28.558291113119711
aF38.784109918514964
aF31.889178997671969
aF29.310084265716728
aF38.691197195182966
aF31.103774702058196
aF28.21945662272428
aF37.79021499814354
aF32.181461359966505
aF27.368186113743661
aF39.592652404773354
aF31.369231100624251
aF26.577765360805078
aF39.598448755726153
aF32.122374907743165
aF27.670912971928882
aF40.622471889321247
aF31.171408023396854
aF26.846991696148663
aF38.962651670853546
aF30.081988637721036
aF27.621673052747695
aF39.017433456874635
aF29.313051384968908
aF26.620208224911483
aF37.911193019462047
aF30.273049574117973
aF25.633469370150504
aF39.666698730338368
aF29.626827628189965
aF25.826554554968105
aF40.649209327280126
aF29.461659575448472
aF25.262629017750399
aF39.232676594398555
aF28.792575425624456
aF24.909806301509292
aF39.615821627052391
aF30.351302069977049
aF31.121874745830265
aF39.67329329209123
aF34.670930865156059
aF30.687991648874569
aF39.84759225647246
aF35.809201021765602
aF32.257103989147382
aF40.225460079584785
aF34.242317992247912
aF32.554493588142485
aF40.038340351685505
aF33.291936611738386
aF33.152198714984692
aF41.077795623276977
aF35.041677669131069
aF33.84475927212646
aF41.585950128600743
aF34.369171036587844
aF32.55464058516467
aF41.838778211979005
aF35.544744736155835
aF33.985522719979485
aF40.346629379618179
aF36.107537615281018
aF34.944666709566476
aF40.911327909611167
aF36.629358186428199
aF33.657214159290561
aF39.094518639552966
aF36.433036406692302
aF32.891690013590484
aF38.66032767389855
aF35.936594031058263
aF34.343085406758782
aF38.277967672122095
aF37.449699703172008
aF34.549065475450675
aF38.896496430556176
aF38.324675117308892
aF33.41553787150405
aF37.124071915363174
aF37.886218590194751
aF33.186040564361569
aF36.504183043451818
aF37.024207363693115
aF34.007731076857425
aF36.204721246775044
aF38.944171408494292
aF34.140273510299338
aF36.751386468186531
aF39.875406877456371
aF33.343532543418526
aF35.358368107533387
aF39.116595521543168
aF34.965144826622804
aF35.815344563670067
aF38.607837660845306
aF32.108330440841598
aF37.674250405712804
aF38.475945087604117
aF31.516282236372668
aF38.165018184413427
aF37.70551823369702
aF31.52227653876005
aF36.857560445794299
aF38.888914395366697
aF32.32884896614798
aF38.386113332219196
aF39.271938762041088
aF35.686598723141842
aF37.775127373280661
aF36.906184652374414
aF35.779485935729838
aF37.415573096004891
aF35.726671213252942
aF36.732537423531959
aF37.737765252437178
aF37.737108615422834
aF36.602603959436301
aF37.998295995841822
aF38.711779870167611
aF38.074249312761154
aF37.29262378362359
aF37.325474638021639
aF38.329678383042051
aF37.834426241098136
aF36.415077723888608
aF39.13101383441105
aF37.69795095831882
aF38.365879019338337
aF40.114814989155249
aF37.390815596584076
aF38.011420778780852
aF39.126827336072182
aF38.784150137083287
aF38.459431563053585
aF38.920858473663337
aF37.144063954387107
aF39.647314922089727
aF39.802719669709397
aF36.86998717701583
aF39.989000190465106
aF38.114338604406726
aF35.797202771838883
aF36.958991656816686
aF37.132579680870656
aF35.070491568427016
aF37.14699183014195
aF39.209166336354379
aF35.323066147219599
aF36.345720991737011
aF39.989870878297047
aF35.957995625178199
aF36.213865185364739
aF39.286085822422578
aF33.959544580255276
aF35.769332858587127
aF38.501751521316251
aF33.85811026078369
aF35.020382316858424
aF40.653439130846941
aF33.749291194875354
aF35.110185480412838
aF40.860787109657856
aF34.625636702424721
aF34.521948920494538
aF41.431901052344877
aF33.679170838013412
aF35.871144880753519
aF40.702448014165981
aF32.499133303580415
aF34.211982262711722
aF40.481150610395964
aF31.614448957145889
aF34.809132714333821
aF39.953137138015329
aF32.578476773304914
aF33.424933156249665
aF42.082169568747275
aF32.309924475718951
aF33.572570662795059
aF42.823917637102383
aF32.245381948315163
aF34.372019958937699
aF42.08480025864322
aF31.370450716817366
aF33.017204899961072
aF42.417393707391184
aF33.415754098261722
aF32.656752767821452
aF41.668201976528984
aF34.068044054135541
aF32.401150710125037
aF43.61082868374293
aF33.772008301840359
aF32.232876562630537
aF44.66687896722344
aF33.051457281371619
aF32.525240678484835
aF44.5354804993
aF32.1747322083
aF33.004825592000003
aF45.595443725599999
aF33.345310211200001
aF32.244010925300003
aF43.739646098842329
aF34.850155072445865
aF31.514011693226774
aF42.898541836791843
aF35.394291368116058
aF31.279775870605786
aF44.61663216382977
aF35.126716147016651
aF31.121455403489556
aF39.075676189819696
aF32.86501631624084
aF36.802778215535099
aF38.311981756313216
aF31.925855067339665
aF36.588133802340792
aF39.789522725145723
aF32.991440886168832
aF37.908240546788036
aF40.391214434453673
aF33.807652896390671
aF37.996346901978178
aF39.7666969299
aF32.052532196000001
aF39.0176010132
aF39.814281463599997
aF31.037693023700001
aF38.622714996299997
aF40.974697112999998
aF32.283535003700003
aF39.9095993042
aF40.751270294199998
aF33.210670471199997
aF40.437423706099999
aF40.957283019999998
aF31.4518222809
aF40.613914489700001
aF42.341697692899999
aF32.3805351257
aF39.280601501500001
aF43.045757293699999
aF32.250034332299997
aF40.102413177499997
aF42.401332855200003
aF31.521795272799999
aF38.611934661900001
aF42.700915330968996
aF33.65510237330092
aF38.503890068907438
aF43.757698059100001
aF33.641532897899999
aF37.838600158699997
aF41.926748411614099
aF34.641273565982431
aF38.499224224227675
aF38.435699462899997
aF32.150531768800001
aF39.729598998999997
aF37.871700286900001
aF31.159532547000001
aF40.179599762000002
aF37.902636330326324
aF33.361103125881343
aF39.911973214408938
aF38.420382800684578
aF34.189031982362103
aF39.658358351604356
aF36.625116449376172
aF33.510620689906503
aF40.609036041307661
aF36.668670654300001
aF32.934413909900002
aF41.539962768599999
aF36.365556354033338
aF34.971165702224077
aF40.975913960716049
aF36.830003956745948
aF35.644045817870477
aF40.256360797116891
aF35.289063828587722
aF35.129020847361474
aF40.963381890874345
aF36.824951171899997
aF35.2763214111
aF42.390449523900003
aF37.8596992493
aF34.725532531699997
aF42.805599212600001
aF36.043750762899997
aF35.939178466800001
aF43.106712341300003
aF35.481653543286392
aF32.957209282127074
aF39.758765332103856
aF34.550697326700003
aF32.3615341187
aF40.280601501500001
aF35.564145789835727
aF33.083667629870675
aF38.432828844065568
aF36.354936529686171
aF33.597314640849532
aF38.060640050759034
aF34.606783773898748
aF32.462742215668591
aF37.515646707414234
aF33.60272771689894
aF32.793679544866087
aF37.779686440826765
aF34.893862071410162
aF32.875373592806618
aF36.067360720264439
aF35.88661595296719
aF32.527750230314929
aF35.786825004083845
aF34.159264931827458
aF32.407855821469944
aF35.409951369250983
aF34.84142691561707
aF34.280658716407068
aF35.898410804932325
aF35.600497159359023
aF34.655368596770309
aF36.391986577875201
aF34.648696899400001
aF30.9345340729
aF37.6366004944
aF33.576698303199997
aF30.3305339813
aF37.7835998535
aF35.8787002563
aF30.3795337677
aF37.557601928700002
aF36.714434513672842
aF30.945620235521339
aF37.452945329191714
aF35.954700469999999
aF28.912532806400002
aF37.680599212600001
aF35.365509033199999
aF28.428297042800001
aF36.901840210000003
aF37.412696838400002
aF28.487533569299998
aF37.524600982700001
aF37.634460449199999
aF28.745018005399999
aF36.488925933799997
aF38.068584442099997
aF29.052154541
aF38.187259674099998
aF37.6416969299
aF26.980533599899999
aF37.738601684599999
aF37.415470123299997
aF26.724277496300001
aF38.773616790799998
aF36.731697082499998
aF26.1815338135
aF36.805599212600001
aF36.957672119100003
aF26.436927795399999
aF35.770317077599998
aF36.897422790500002
aF25.115438461299998
aF36.960769653299998
aF35.690235137899997
aF26.421726226800001
aF37.019523620599998
aF39.116699218800001
aF26.666532516499998
aF37.570602417000003
aF39.694412231400001
aF27.230045318599998
aF38.303264617899998
aF39.281101226799997
aF25.5996570587
aF37.721759796100002
aF39.4356422424
aF26.944017410299999
aF36.5659217834
aF35.355697631799998
aF28.445533752399999
aF38.996601104699998
aF34.6077003479
aF27.469533920300002
aF39.058601379400002
aF35.650699615500002
aF29.175533294699999
aF40.105602264399998
aF36.260887146000002
aF29.980146408100001
aF40.124786377
aF35.139698028600002
aF28.663534164400001
aF41.374599456799999
aF35.3063850403
aF27.588190078699999
aF41.437458038300001
aF35.868698120099999
aF29.345533370999998
aF42.552600860600002
aF36.943355560299999
aF29.197641372700001
aF42.446102142299999
aF35.646812439000001
aF30.412683486900001
aF42.5450172424
aF35.399700164800002
aF28.737533569299998
aF43.873600006099998
aF35.884815216100002
aF29.285306930499999
aF44.681503295900001
aF34.318450927699999
aF28.8440628052
aF43.9611206055
aF35.755699157700001
aF27.261533737200001
aF44.003601074199999
aF36.919696807900003
aF26.905532836900001
aF43.774600982700001
aF34.771697998
aF26.423532485999999
aF44.338600158699997
aF34.963989257800002
aF25.436759948700001
aF44.435581207299997
aF33.8395652771
aF26.7802371979
aF44.493499755899997
aF33.629699707
aF28.8105335236
aF41.441600799600003
aF32.9846992493
aF27.941534042400001
aF42.047599792500002
aF33.023696899400001
aF29.856533050500001
aF40.864601135299999
aF33.5709152222
aF30.609544754000002
aF40.472648620599998
aF31.5696983337
aF29.979534149199999
aF40.853599548299997
aF31.1965312958
aF29.930418014499999
aF41.876552581799999
aF31.116699218800001
aF31.3235340118
aF40.224601745599998
aF31.7520961761
aF31.518026351900001
aF39.360572814900003
aF30.0838775635
aF31.206535339399998
aF39.8964385986
aF31.210699081400001
aF32.490531921399999
aF41.195602417000003
aF30.600700378399999
aF32.272167205800002
aF42.072139739999997
aF32.250049591100002
aF32.616168975800001
aF41.499031066900002
aF30.708698272700001
aF33.789531707800002
aF40.530601501500001
aF31.178312301599998
aF33.854309082
aF39.549087524400001
aF29.6292572021
aF33.696880340600003
aF40.410934448200003
aF31.026699066199999
aF35.056533813500003
aF41.333599090600003
aF32.108409881599997
aF35.190628051799997
aF41.337944030800003
aF30.558334350599999
aF35.901901245099999
aF40.829528808600003
aF30.532699585
aF34.978534698499999
aF42.730602264399998
aF30.966901779200001
aF34.1955184937
aF43.197994232200003
aF30.7646350861
aF35.832283019999998
aF43.217853546100002
aF29.530324935900001
aF34.854709625200002
aF42.726802825900002
aF30.967699050899999
aF28.783533096300001
aF40.109600067099997
aF29.925699234
aF28.274534225499998
aF40.503601074199999
aF31.6066989899
aF28.3245334625
aF39.040599823000001
aF32.417472839399998
aF28.8160209656
aF38.692489623999997
aF31.1216983795
aF27.138532638499999
aF38.2835998535
aF30.046714782700001
aF27.1353225708
aF38.103324890099998
aF31.8576984406
aF27.085533142100001
aF36.955600738500003
aF32.923511505100002
aF27.2170276642
aF37.142292022699998
aF31.6246986389
aF25.745532989499999
aF36.246601104699998
aF30.559083938600001
aF25.613531112699999
aF36.059143066399997
aF32.163585662800003
aF25.736644744900001
aF35.299171447799999
aF31.985610961900001
aF24.932796478299998
aF36.876918792700003
aF31.4996986389
aF28.248533248899999
aF36.040599823000001
aF30.489208221399998
aF28.051677703900001
aF35.682472228999998
aF31.494581222499999
aF29.138278961200001
aF36.6702232361
aF32.423698425300003
aF28.473533630399999
aF34.852600097699998
aF32.428977966300003
aF27.5843219757
aF34.222225189200003
aF32.070549011200001
aF29.326745986900001
aF34.273452758799998
aF33.434352874799998
aF28.6709213257
aF35.209980010999999
aF31.331699371300001
aF25.8975334167
aF39.131599426299999
aF30.409698486300002
aF25.093532562299998
aF39.2506027222
aF41.529697418200001
aF26.389533996600001
aF34.522602081300001
aF41.863555908199999
aF26.083667755099999
aF35.425422668499998
aF41.574699401899998
aF27.817533492999999
aF34.214599609399997
aF40.5696144104
aF28.169147491499999
aF33.981632232700001
aF42.084697723399998
aF28.5725326538
aF35.455600738500003
aF43.093803405800003
aF28.2377967834
aF35.695930480999998
aF42.096683502200001
aF29.643049240100002
aF35.250774383500001
aF41.425201416
aF28.372053146399999
aF36.299976348900003
aF42.408699035600002
aF28.0785331726
aF32.981601715099998
aF42.041698455800002
aF28.8785324097
aF32.110599517799997
aF43.548698425300003
aF27.3795337677
aF32.895599365199999
aF43.8583259583
aF26.782773971600001
aF33.649330139200003
aF44.405696868900002
aF27.516532897899999
aF31.727600097700002
aF44.622779846199997
aF28.567249298099998
aF31.535316467299999
aF45.7336997986
aF26.7785339355
aF31.985601425199999
aF46.234657287600001
aF27.283643722499999
aF32.811435699500002
aF45.4899559021
aF25.757480621300001
aF32.279098510700003
aF46.659698486300002
aF26.7515335083
aF30.7676010132
aF46.155731201199998
aF26.2117786407
aF29.965864181499999
aF46.843151092500001
aF27.779121398899999
aF30.4537410736
aF47.9856987
aF26.0725326538
aF31.080600738499999
aF48.685390472400002
aF26.844909668
aF31.399921417200002
aF47.8148269653
aF25.3759746552
aF31.901397705099999
aF48.570697784399997
aF25.317533492999999
aF29.884601592999999
aF47.743675231899999
aF24.898328781099998
aF29.311540603600001
aF49.114952087399999
aF26.031784057599999
aF29.266757965099998
aF49.4986991882
aF24.211532592800001
aF30.307600021399999
aF48.994468689000001
aF23.549354553200001
aF30.8797645569
aF49.859264373800002
aF23.742961883500001
aF29.488740921000002
aF50.265335082999997
aF24.599817276
aF30.838262558
aF43.731697082499998
aF26.988533019999998
aF30.4586009979
aF43.881698608400001
aF27.5745334625
aF29.361600875899999
aF40.468700408899998
aF26.8285331726
aF29.720600128200001
aF40.428485870400003
aF26.513732910200002
aF30.6794452667
aF39.523696899400001
aF27.854534149199999
aF29.288600921600001
aF38.889709472699998
aF27.4543571472
aF28.497388839700001
aF38.629699707
aF28.3095340729
aF30.450601577800001
aF38.086730957
aF27.440536499
aF30.822261810299999
aF39.271251678500001
aF28.7013378143
aF31.239902496300001
aF37.630699157700001
aF29.390533447300001
aF30.0206012726
aF37.469017028800003
aF29.267692565899999
aF28.949680328399999
aF36.699890136699999
aF29.1946277618
aF30.5528774261
aF38.128516727803593
aF30.822420875636816
aF30.330350222014264
aF38.215190484499928
aF30.942105677309879
aF31.408635038695966
aF39.11986576389971
aF30.974458292902824
aF29.912263207854412
aF37.223999423486497
aF31.925197538080351
aF29.769429919067857
aF37.106578588029961
aF31.771895428391275
aF28.694118366301147
aF36.237234829287303
aF31.857772893390713
aF30.237928822877542
aF37.812548142683717
aF33.266812054382775
aF30.010276664796233
aF38.755955687494762
aF33.369377987093422
aF29.63295675595203
aF37.261965001475545
aF34.017103816361278
aF29.60158792107795
aF37.905114658996304
aF33.491603839980201
aF30.99989522226322
aF40.2356987
aF29.036533355700001
aF28.6366004944
aF39.789699554400002
aF29.546533584599999
aF27.5906009674
aF41.305698394799997
aF29.518533706700001
aF29.2646007538
aF41.6633872986
aF29.130975723300001
aF30.125970840499999
aF41.970699310299999
aF30.693532943699999
aF28.704601287799999
aF41.233998382833697
aF31.485139220116569
aF28.556514190655644
aF43.075698852499997
aF31.231533050500001
aF29.606601715099998
aF42.673266422193905
aF31.444827296037857
aF30.59338911739588
aF43.884834289600001
aF30.507223129300002
aF29.700260162399999
aF43.652597230102671
aF32.506845728880272
aF29.029925241044094
aF42.96517637378571
aF33.488482943196274
aF28.808363983889901
aF44.938697814900003
aF32.533535003700003
aF28.8226013184
aF45.371227264399998
aF33.368618011499997
aF28.454290390000001
aF45.493919372599997
aF31.711383819600002
aF29.012083053600001
aF42.570697784399997
aF30.377532959
aF27.3346004486
aF42.4836997986
aF31.206533432000001
aF26.408601760900002
aF43.188697814900003
aF29.2015323639
aF27.175600051899998
aF43.292251586900001
aF28.530305862399999
aF27.923149108899999
aF43.762699127200001
aF28.8785324097
aF25.868600845300001
aF44.4859313965
aF29.6396503448
aF25.575794219999999
aF44.4786987305
aF27.524534225499998
aF25.9416007996
aF43.814842224099998
aF26.812913894699999
aF26.432508468599998
aF44.660667419399999
aF27.203069686900001
aF24.916101455700002
aF45.781700134300003
aF27.587533950800001
aF26.684600830099999
aF46.405696868900002
aF28.6515331268
aF26.8916015625
aF46.238697051999999
aF26.510532379200001
aF27.1206016541
aF42.685699462899997
aF28.8235340118
aF24.791601181000001
aF42.931697845499997
aF29.259532928500001
aF23.658601760900002
aF41.4956970215
aF28.338533401500001
aF25.114601135299999
aF41.354148864700001
aF27.950592041
aF26.036319732700001
aF40.371700286900001
aF28.285533905000001
aF24.149600982700001
aF40.687808990500002
aF27.828264236500001
aF23.2120094299
aF39.262699127200001
aF27.443532943699999
aF24.749601364099998
aF39.633010864299997
aF26.441595077500001
aF24.966606140100001
aF38.970733642600003
aF27.931709289600001
aF25.6794071198
aF38.043697357200003
aF27.3265323639
aF23.861600875899999
aF38.188697814900003
aF27.339532852200001
aF22.629600524899999
aF36.845699310299999
aF27.167533874499998
aF24.4646015167
aF36.008956909200002
aF27.085733413700002
aF23.904895782499999
aF36.791973114000001
aF27.131147384599998
aF25.472515106199999
aF39.915699005100002
aF29.694532394399999
aF23.829601287799999
aF39.767700195300002
aF30.082532882700001
aF22.6596012115
aF39.682697296100002
aF30.500534057599999
aF24.861600875899999
aF39.754856109599999
aF30.1387176514
aF25.8018035889
aF39.275699615500002
aF31.8815326691
aF24.685600280799999
aF38.319492340099998
aF31.9420585632
aF24.165882110599998
aF39.094861993032744
aF32.504800712128429
aF26.077205890868413
aF38.308968887940189
aF31.964708352575034
aF26.60615487169208
aF40.016564888342145
aF32.382951814650724
aF26.647620585993486
aF38.736910575860506
aF33.97511994134193
aF26.046506966331336
aF37.403682136276416
aF34.37352044049117
aF25.825414875040437
aF36.630106553127177
aF33.630581711148082
aF25.692059947431289
aF37.082292166537378
aF35.743610810605652
aF25.773519409309436
aF36.065113659323444
aF36.064975836921271
aF25.630427089142518
aF38.097177957703771
aF36.710918656090954
aF25.92078835233373
aF37.793064280463447
aF38.031964239251003
aF25.876288316093948
aF36.848747007310216
aF38.192993617348236
aF25.986900102496186
aF39.428903712448665
aF36.310128175247613
aF26.14235759699671
aF40.194312615537953
aF37.058634328931454
aF26.276634839970196
aF39.747844868786281
aF34.942473900509498
aF26.211899861451236
aF40.772650463006805
aF34.639485481613711
aF26.38895248192058
aF40.257698059100001
aF32.669532775900002
aF23.848600387600001
aF39.898696899400001
aF33.444534301799997
aF22.935600280799999
aF41.563697814900003
aF32.530532836900001
aF24.102600097700002
aF41.841201782200002
aF31.970779418900001
aF24.896179199199999
aF42.600700378399999
aF33.231533050499998
aF23.354600906400002
aF42.401836395300002
aF34.303142547599997
aF23.3401203156
aF43.975700378399999
aF32.998535156199999
aF23.978601455700002
aF44.079700469999999
aF31.93034935
aF24.169033050500001
aF45.1077003479
aF33.464534759499998
aF23.0886001587
aF45.0046272278
aF34.532794952400003
aF22.8980903625
aF46.060661315899999
aF33.274333953899998
aF23.5823459625
aF45.074214935299999
aF32.922554016100001
aF22.143486022899999
aF44.036697387700002
aF33.760532379200001
aF25.324600219699999
aF43.259170532200002
aF33.441181182900003
aF26.0105991364
aF45.012050628700003
aF33.606330871600001
aF25.7861328125
aF43.907405853299998
aF34.824817657499999
aF25.138645172099999
aF42.555698394799997
aF32.824531555199997
aF21.883600234999999
aF42.698699951199998
aF33.662532806400002
aF20.983600616499999
aF39.7516975403
aF31.943532943699999
aF20.337600708
aF39.769550323499999
aF31.586223602299999
aF21.282117843599998
aF38.507698059100001
aF32.519535064700001
aF19.8396015167
aF38.216896057100001
aF31.959796905499999
aF18.950653076199998
aF37.343700408899998
aF32.493534088099999
aF20.837600708
aF37.716464996299997
aF32.9435424805
aF21.757730484
aF36.561798095699999
aF33.125007629400002
aF20.4157352448
aF36.764698028600002
aF31.094533920300002
aF21.146600723300001
aF36.265457153299998
aF30.6766147614
aF20.2724132538
aF37.547515869100003
aF30.412309646600001
aF21.4780712128
aF35.544696807900003
aF31.3075332642
aF22.490600585900001
aF34.896697998
aF29.6815338135
aF22.6906013489
aF35.703025817899999
aF28.998979568500001
aF22.9590301514
aF34.145339965799998
aF29.683868408199999
aF23.480255127
aF34.440238952599998
aF29.354310989399998
aF21.756431579600001
aF38.708698272699998
aF33.990531921399999
aF19.437601089499999
aF38.026699066200003
aF34.449531555199997
aF18.5346012115
aF39.590698242199998
aF34.702533721899997
aF20.1406002045
aF40.133708953899998
aF34.312885284399997
aF20.897840499899999
aF39.681697845499997
aF36.1485328674
aF19.8896007538
aF38.847080230700001
aF36.568775176999999
aF19.328435897799999
aF39.877475738500003
aF36.951137542700003
aF21.198972701999999
aF39.9436836243
aF38.006576538099999
aF20.934625625599999
aF38.6649517249935
aF36.798323065116108
aF22.11711256400595
aF38.560364480897348
aF35.765776393280241
aF22.454024680267743
aF38.751746049011253
aF37.451908642078692
aF22.984693723320486
aF37.798455473735167
aF37.093549609500833
aF21.543350805914429
aF41.1969642639
aF36.559276580800002
aF21.882831573499999
aF41.141654968300003
aF35.513317108199999
aF22.174943924000001
aF41.988803863500003
aF36.692249298100002
aF21.145576477100001
aF41.563939103654434
aF37.386474607762935
aF23.118092119047382
aF40.838866000876216
aF37.225386625124919
aF23.912759609672431
aF42.547792371881513
aF37.082650169608939
aF23.477214735971561
aF41.591104093133097
aF38.44141685052071
aF22.857178111281499
aF40.768699646000002
aF36.493534088099999
aF18.878601074199999
aF41.019699096700002
aF37.681533813500003
aF18.6416015625
aF41.451698303199997
aF35.567531585700003
aF18.225601196300001
aF41.271564483600002
aF34.579074859599999
aF18.328550338700001
aF42.557697296100002
aF35.988533019999998
aF17.346601486200001
aF43.254680633500001
aF36.616310119600001
aF17.901771545399999
aF43.322700500499998
aF34.749534606899999
aF16.814599990800001
aF42.594482421899997
aF34.080913543699999
aF16.3555278778
aF44.027240753199997
aF35.093559265099998
aF16.057392120399999
aF44.071697235099997
aF34.009532928500001
aF17.900600433299999
aF43.3897438049
aF33.671260833700003
aF18.6807346344
aF44.531326293900001
aF33.145454406699997
aF17.420793533299999
aF45.151699066200003
aF34.837532043499998
aF18.533601760900002
aF45.981697082499998
aF35.514533996600001
aF17.918600082400001
aF45.174697876000003
aF34.8825340271
aF19.876600265499999
aF45.882785797099999
aF35.426574707
aF20.348545074499999
aF44.483791351299999
aF34.372108459499998
aF20.407836914099999
aF42.1036987305
aF36.831531524699997
aF16.1566009521
aF42.915699005100002
aF37.660533905000001
aF15.693600654600001
aF39.551700592000003
aF38.990531921399999
aF16.108600616499999
aF39.840457916299997
aF38.386825561499997
aF16.865077972400002
aF38.910697937000002
aF40.263534545900001
aF16.442600250200002
aF37.8746986389
aF40.296592712399999
aF16.105386734
aF38.938697814900003
aF40.473533630399999
aF17.973600387600001
aF39.957485198999997
aF40.338275909399997
aF18.336751937900001
aF38.459697723399998
aF41.884532928500001
aF18.314599990800001
aF37.440742492699997
aF42.020397186300002
aF17.9521465302
aF38.482162475599999
aF42.025173187299998
aF19.395256042500002
aF39.114143371600001
aF42.615600585899998
aF17.839899063099999
aF38.068698883099998
aF39.433532714800002
aF18.627601623499999
aF38.445873260500001
aF38.439704894999998
aF18.3864650726
aF38.082874298100002
aF39.574619293200001
aF19.708337783800001
aF37.046516418499998
aF39.5321807861
aF18.262205123899999
aF39.6086997986
aF41.384532928500001
aF15.664601326
aF40.846698760999999
aF41.3815345764
aF15.527601242099999
aF34.976699829099999
aF44.969532012899997
aF14.704601287799999
aF35.975456237800003
aF44.823348998999997
aF14.669757842999999
aF34.222698211699999
aF44.406532287600001
aF15.852601051300001
aF33.220237731899999
aF44.102935791
aF15.550943374599999
aF34.9796981812
aF43.168533325200002
aF16.356601715099998
aF35.995105743400003
aF43.498218536400003
aF16.576499939000001
aF34.519580841100002
aF42.780109405499999
aF17.265182495099999
aF35.019699096700002
aF42.075534820599998
aF15.3026008606
aF36.087699890099998
aF41.515533447300001
aF15.057600975
aF33.9976997375
aF41.789531707800002
aF14.664601326
aF34.041698455800002
aF45.384532928500001
aF16.9676017761
aF33.3766975403
aF45.019535064700001
aF17.951601028399999
aF34.590698242199998
aF46.6115341187
aF16.8886013031
aF35.209968566900002
aF46.889308929400002
aF16.140640258800001
aF34.331699371299997
aF47.580532073999997
aF17.985601425199999
aF34.610946655299998
aF47.1836395264
aF18.9616107941
aF35.148696899400001
aF48.862533569299998
aF17.722600936900001
aF34.901107788099999
aF49.231887817400001
aF16.727424621600001
aF34.844699859599999
aF49.935531616200002
aF18.749601364099998
aF35.092487335199998
aF49.567054748499999
aF19.745052337600001
aF35.437675476099997
aF50.824275970499997
aF18.533699035600002
aF33.785053253199997
aF50.187812805199997
aF18.709478378299998
aF36.6416969299
aF48.546531677200001
aF17.735601425199999
aF36.865562439000001
aF47.8150558472
aF16.959117889400002
aF37.208328247099999
aF49.458770752
aF17.548910141
aF36.919059753399999
aF48.139755248999997
aF18.708074569699999
aF32.841697692899999
aF47.796531677200001
aF18.005599975599999
aF32.176700592000003
aF48.0045318604
aF16.950601577800001
aF32.209697723399998
aF47.810531616200002
aF19.187601089499999
aF32.739215850800001
aF47.611713409399997
aF20.024370193500001
aF30.7986984253
aF48.092533111599998
aF19.320600509599998
aF30.2051239014
aF47.373031616200002
aF18.756610870399999
aF30.420698165899999
aF47.985534668
aF20.800600051899998
aF31.310846328699999
aF48.192340850800001
aF21.394712448100002
aF29.687282562299998
aF48.776260376000003
aF20.958572387699999
aF29.8236980438
aF46.644535064700001
aF21.227600097700002
aF29.841699600199998
aF46.354534149199999
aF22.573600768999999
aF30.312482833899999
aF47.051185607900003
aF23.2504558563
aF29.311262130700001
aF45.181205749500002
aF23.102556228600001
aF29.353044464507043
aF44.971257805072113
aF24.154452462802606
aF28.7286987305
aF44.2675323486
aF22.227600097700002
aF28.209699630700001
aF43.104534149199999
aF22.773601532000001
aF28.345608342633472
aF42.965767958530805
aF23.712350091336802
aF28.6956977844
aF44.552532196000001
aF20.8956012726
aF28.229845047000001
aF43.8265228271
aF20.229274749799998
aF29.2306995392
aF45.721534728999998
aF20.380599975599999
aF29.185447692899999
aF45.915824890099998
aF19.309011459400001
aF30.440698623700001
aF49.488533019999998
aF18.819601059
aF31.2476978302
aF50.437534332299997
aF18.860601425199999
aF31.563697814899999
aF53.319534301799997
aF20.2146015167
aF31.269374847400002
aF52.432621002200001
aF19.831382751500001
aF32.727699279799999
aF53.339534759499998
aF21.107601165799998
aF32.619606018100001
aF53.9370803833
aF22.012783050500001
aF33.093700408899998
aF51.896533966100002
aF21.487600326500001
aF33.105636596700002
aF51.294673919700003
aF20.578908920300002
aF34.465698242199998
aF51.819534301799997
aF22.169601440400001
aF34.454391479500003
aF52.420818328899998
aF23.0786819458
aF34.688449859599999
aF50.783039092999999
aF22.422908783
aF35.230472564700001
aF52.199954986599998
aF21.492475509599998
aF31.9806995392
aF51.228534698499999
aF22.305601119999999
aF31.075233459500001
aF51.297904968300003
aF21.702756881700001
aF32.266334533699997
aF50.1820373535
aF22.412160873400001
aF31.719697952299999
aF51.828533172599997
aF23.687601089499999
aF31.433542251599999
aF52.874965667700003
aF23.581815719600002
aF30.9145946503
aF51.2798538208
aF24.176332473799999
aF32.624641418499998
aF51.759101867699997
aF24.291219711299998
aF33.8536987305
aF54.1175346375
aF20.493600845300001
aF34.4827003479
aF54.916534423800002
aF21.185600280799999
aF40.846698760999999
aF58.782531738300001
aF29.5846004486
aF41.820522308299999
aF58.973819732700001
aF29.397045135500001
aF40.312698364299997
aF57.465534210199998
aF29.216600418100001
aF39.298412323000001
aF57.306373596199997
aF29.5826454163
aF40.340698242199998
aF57.283535003700003
aF27.678600311299999
aF41.342163085899998
aF57.545387268100001
aF27.337125778200001
aF40.008697509800001
aF55.885532379200001
aF27.232601165799998
aF39.007129669199998
aF55.623115539600001
aF27.573331832899999
aF40.047485351600002
aF55.8318481445
aF26.1446151733
aF40.730606079099999
aF55.187358856199999
aF27.6562747955
aF39.395698547400002
aF58.304534912100003
aF26.989601135299999
aF38.373886108400001
aF57.948272705100003
aF27.120281219500001
aF39.514732360799997
aF59.260345459
aF27.499849319500001
aF39.681697845499997
aF58.480533599899999
aF25.521600723300001
aF39.562408447300001
aF57.525169372599997
aF25.0105705261
aF38.986740112299998
aF59.206760406500003
aF25.100025176999999
aF40.703254699699997
aF58.8372383118
aF25.3901405334
aF41.170700073200003
aF56.389533996600001
aF29.859600067100001
aF42.3736991882
aF56.324531555199997
aF29.630599975599999
aF40.532699585000003
aF55.513534545900001
aF30.6426010132
aF39.534324646000002
aF55.527759551999999
aF30.794742584200002
aF41.320697784399997
aF54.469532012899997
aF31.301601409900002
aF42.309192657499999
aF54.385768890400001
aF30.849975585900001
aF41.487697601299999
aF54.747531890899999
aF32.791599273700001
aF40.506294250499998
aF54.824996948200003
aF33.259513855000002
aF42.046497344999999
aF53.933444976799997
aF33.253227233899999
aF42.029846191399997
aF55.683158874500002
aF32.9286384583
aF40.605697631799998
aF53.137535095200001
aF31.148601532000001
aF39.372835015444487
aF53.092717700041476
aF31.199858422131307
aF41.336666260976401
aF52.021195377101094
aF31.00884996667364
aF42.3507995605
aF52.083122253399999
aF30.942600250200002
aF40.737296505782865
aF50.687141178516569
aF31.046211587074598
aF39.716612387274878
aF50.764798030558026
aF30.672399237752622
aF41.503012377476999
aF49.725765908114845
aF30.115696438386138
aF41.823566005701473
aF50.253556194063698
aF29.216603063968197
aF42.394172779924041
aF49.38235889696643
aF30.636045645436159
aF40.661794275656341
aF48.50372438746291
aF29.697359407671744
aF40.103500671829508
aF48.135673731883969
aF30.556601347120495
aF39.674920051307893
aF48.86941291976153
aF28.585898053365906
aF40.207006071897524
aF49.247739198556829
aF27.714573495716643
aF39.099430379440548
aF47.992524387631114
aF28.301088248819635
aF38.97810067448146
aF49.628156711733176
aF28.933119204375018
aF41.556478760795308
aF47.371088411675828
aF29.193947428070537
aF42.195133628929419
aF47.021994026368752
aF30.005307910151299
aF40.94424034356242
aF46.532900329715865
aF28.865080547014145
aF42.180774515557516
aF47.70955608734797
aF28.370016073345059
aF40.67472338720426
aF50.178130811073459
aF32.494870810251371
aF41.69603145477128
aF50.117208906389415
aF33.180530888115563
aF39.491173424281442
aF49.755289407206185
aF32.925361696143888
aF38.725026720299446
aF49.826019911284554
aF32.266487289663104
aF39.178217020764997
aF49.094091424246386
aF34.191831406406408
aF40.098928385783097
aF48.953220716023026
aF34.760223378397789
aF38.251188297193657
aF50.010477536268255
aF35.0006788396826
aF37.312564788133962
aF50.147047998641334
aF34.462738742562046
aF38.046331124724787
aF49.56135649980866
aF35.973428845816933
aF38.72144676978504
aF50.980614263393363
aF35.150709960862386
aF38.585965497405923
aF47.69083849311636
aF33.925966995975543
aF37.543060701660259
aF47.311394055795112
aF34.463785149411706
aF39.226588397963397
aF46.935993308992813
aF33.033372300917954
aF40.134964249827043
aF47.258071574105827
aF32.714620872945311
aF38.870370383223054
aF45.562160202961039
aF32.676386049329359
aF37.786513706566119
aF45.444691787988859
aF32.675613980816969
aF39.389904306432285
aF45.26961451526936
aF31.266939710342964
aF38.926915239619625
aF45.961111856314957
aF30.562788012262111
aF40.471489624062947
aF45.411963695487415
aF31.245451278640864
aF39.097252850930715
aF43.947931458973187
aF30.878770189221825
aF38.118562593252356
aF43.899720678226075
aF30.705550988266253
aF39.485367106114275
aF44.582293851568522
aF33.674537385813544
aF40.637288931829168
aF44.746729900431156
aF34.074006600678196
aF38.757255269686993
aF43.531373005176803
aF34.051362218135587
aF37.797894330199412
aF43.436744112825885
aF33.714249115272473
aF39.317605051836445
aF42.418674545126784
aF34.813947908871114
aF39.944981415066032
aF42.824880572151137
aF35.60817334326773
aF38.15810231114763
aF41.671529377747369
aF35.475838737485077
aF37.493208867590667
aF41.268415709596333
aF34.715779978414012
aF38.544194418268965
aF40.85157154027381
aF36.081005393905258
aF37.594764186374341
aF42.359967655883047
aF36.105223268849727
aF40.208203525463688
aF41.483356927333716
aF33.963166970468102
aF40.818380196242416
aF40.563441150459816
aF34.52027394401491
aF40.282518847308566
aF41.695645247896969
aF32.643051309933924
aF39.766776396125081
aF42.477374925493194
aF32.254122569214893
aF40.944997091408574
aF40.807685167810426
aF31.684842447887213
aF40.821979402895913
aF39.7847612134494
aF32.021647534167641
aF40.256010374872751
aF40.902508129440903
aF30.327398415138216
aF39.20257977724215
aF40.644015931166422
aF30.432946828323587
aF40.339288405644432
aF41.915837644890203
aF29.93452985766459
aF40.870588364814175
aF40.008701165028356
aF29.427435216459738
aF40.221306171770998
aF39.890740737109326
aF28.693001184605684
aF42.441301333976341
aF41.061199778445207
aF31.520809861338012
aF42.872878465402671
aF42.165312187098792
aF31.172306697179717
aF43.235559017880341
aF39.993463954694249
aF31.663573155250866
aF42.775402513147618
aF39.112074247257645
aF31.910431880662696
aF44.666235339047844
aF39.945153591990142
aF31.303758425328869
aF45.141338643953674
aF40.879960059252397
aF31.615708375335451
aF45.337050023746905
aF38.778971859917881
aF32.052995240451374
aF44.866153907097299
aF37.841206355118082
aF31.751358883221229
aF46.388482473126381
aF38.750506201055678
aF31.767737761814363
aF45.256246933204636
aF38.916956665663072
aF33.584317422575886
aF45.684717102291025
aF39.874297990244443
aF33.874653022721262
aF44.212696891584386
aF38.891361271114334
aF33.901511240105073
aF46.018749747755137
aF37.791661857126478
aF34.299330637580809
aF45.576010746282883
aF36.833986668851679
aF34.020788243037153
aF47.064903773368471
aF37.812082341289681
aF33.989561460130673
aF45.935821539237608
aF37.982987620817397
aF35.820261752233755
aF46.438108957158796
aF38.917377599285068
aF36.074365309867211
aF44.881102312647798
aF38.084981490831325
aF36.09565743651185
aF46.531812426406709
aF36.840043153256488
aF36.562820461700248
aF47.5039291382
aF36.688106536900001
aF36.328010559100001
aF46.4452171326
aF36.960857391399998
aF37.562934875499998
aF45.991957549675291
aF36.004403415411012
aF36.336461084675683
aF44.878141310895671
aF39.837549895166319
aF29.781589203014658
aF45.992739205571482
aF40.045162452794315
aF29.291644447870496
aF43.80902957622925
aF39.542875477306033
aF29.036252371561783
aF42.93630436254638
aF39.373828687883972
aF29.52597255270426
aF43.721039338506891
aF39.629073824391767
aF27.574411088439945
aF44.710877121763403
aF39.469541248504633
aF27.144794985572805
aF42.816391875807838
aF38.491622671867056
aF27.071001649700587
aF41.857956717395609
aF38.50387910777637
aF27.58603756418464
aF42.62867627420772
aF38.625298045128112
aF26.006207087042327
aF43.478045133596531
aF37.140923467936432
aF27.24497112259499
aF44.459785280609864
aF36.839438542055611
aF26.584835707173525
aF43.009785469008669
aF36.303926364869419
aF28.140812545026279
aF43.397743478906307
aF35.371668179807138
aF28.175121939447667
aF42.251853077055294
aF36.544241412804489
aF28.789321574126443
aF43.259025344551091
aF41.020990958848678
aF27.084100324192978
aF43.202718861346632
aF41.2645527510969
aF25.876888400605559
aF42.967413524658703
aF41.950296931801859
aF28.004544230295604
aF42.978780919946978
aF41.67771918281295
aF28.978075551421007
aF42.528928514685191
aF43.312856539625365
aF27.701456067068335
aF41.55219229283216
aF43.251098871506741
aF27.236021870130422
aF42.435609764226626
aF43.873545874194399
aF28.631723428318836
aF43.466747585459849
aF44.079833540930473
aF26.757107111698968
aF43.002111765323797
aF44.537031676868885
aF25.710528963350953
aF44.778777196025949
aF44.176498583000573
aF27.055298182239046
aF45.391033198396514
aF43.862636485962028
aF28.34010201796448
aF45.583859824426831
aF42.792919492836084
aF28.409067720105917
aF44.759567602631797
aF44.178928289889434
aF29.168485073183987
aF46.711908886266549
aF44.629201555130322
aF28.371373350151327
aF47.466545767061561
aF44.119039668175361
aF28.970118211939621
aF46.544825031507784
aF45.641602849152491
aF28.735509032408494
aF47.098697662399999
aF44.674533844000003
aF26.900600433299999
aF47.584270477300002
aF43.7417030334
aF26.613988876299999
aF47.749862670900001
aF45.513175964399998
aF26.6540908813
aF45.756763290286862
aF44.822077584293751
aF26.178607877343616
aF45.507915800750659
aF45.880944301507775
aF26.101314627431012
aF45.820682525599999
aF44.229972839399998
aF24.764446258500001
aF45.797698974600003
aF44.961532592799998
aF23.7786006927
aF45.833698667471587
aF42.897286953447001
aF24.64497314426767
aF45.85537856200461
aF42.333928690608609
aF25.487465483279042
aF45.795700073200003
aF42.206531524699997
aF23.351600647000001
aF46.673915862999998
aF42.477409362800003
aF22.765548706099999
aF45.821697235099997
aF40.688533782999997
aF23.603601455700002
aF46.776958465600003
aF40.409500122099999
aF24.048257827800001
aF45.023161993304662
aF40.40138323211383
aF24.286700563849784
aF45.692699432399998
aF39.888534545900001
aF22.305601119999999
aF46.815700530999997
aF39.665534973100002
aF21.510601043699999
aF47.794471740699997
aF40.0418968201
aF21.808008193999999
aF46.676700592000003
aF38.957534789999997
aF20.332601547199999
aF47.540958404500003
aF38.7305412292
aF19.708395004300002
aF45.414699554400002
aF38.534534454300001
aF19.948600768999999
aF45.3417015076
aF38.040824890099998
aF18.979568481400001
aF44.280696868900002
aF38.709533691399997
aF20.723600387600001
aF43.291328430199997
aF38.332866668699999
aF20.464044570900001
aF44.463699340799998
aF39.410533905000001
aF21.8876018524
aF43.605606669968061
aF39.593001416126697
aF22.517974287371601
aF44.582698821999998
aF42.6165351868
aF22.554601669299998
aF44.682697296100002
aF42.872531890899999
aF21.345600128200001
aF43.396727913634102
aF42.655709152385391
aF23.176040848321758
aF43.367471480730153
aF42.422296775042305
aF24.164586487412286
aF42.144101679768191
aF43.011782450148097
aF22.499833967208005
aF42.056553176892329
aF42.42006084019259
aF21.590428478203325
aF40.960923155040163
aF42.708191992330683
aF23.43584358240944
aF41.2199669014514
aF43.032105021907064
aF24.444064471835855
aF40.095622485002188
aF43.288575447893855
aF23.118004978505095
aF40.552644605142987
aF41.229267583208802
aF23.480420829274657
aF41.413019597649978
aF40.61559914239745
aF23.743429042769382
aF39.471177614121586
aF41.038904282545019
aF24.53948427227386
aF38.585612064918614
aF41.625582328278277
aF24.300685071061029
aF39.202016293191015
aF39.98566725945696
aF24.605308120049841
aF39.857068728011598
aF41.352421122575478
aF25.510309340772139
aF39.982954092037552
aF40.762832031948385
aF22.136274218651483
aF40.780174264621202
aF40.667926415419565
aF21.400664109100703
aF39.516097562939429
aF39.788655848263978
aF22.263901251521016
aF39.235287565033872
aF41.469855005751697
aF21.779413705901103
aF42.120426853875514
aF44.478591110708756
aF22.055931295886261
aF41.709697723399998
aF44.795532226600002
aF20.936601638799999
aF42.589434811796451
aF45.403389383855206
aF22.884176977700204
aF42.968212291468049
aF45.141422999952312
aF23.790012167821331
aF42.696697235099997
aF46.7745323181
aF22.4036006927
aF41.713600158699997
aF47.100059509300003
aF22.0635242462
aF43.158699035600002
aF47.701534271200003
aF23.500600814799999
aF44.090579986599998
aF47.2154960632
aF23.789499282800001
aF43.378372192400001
aF48.672481536900001
aF23.0566425323
aF42.248435791846624
aF47.869769707242568
aF24.73003568819869
aF42.177759844772986
aF46.925596236197727
aF25.264395997758172
aF42.863441519142896
aF48.905908934892395
aF25.673711082477791
aF42.990638732900003
aF49.867565155000001
aF25.176498413099999
aF42.22317632439033
aF49.049394148259914
aF26.539565452031344
aF43.833699239741314
aF48.5404975001384
aF26.006230422708434
aF40.828709948313346
aF48.305424196040384
aF24.362611114599467
aF40.326623402222594
aF47.502255064107821
aF23.826071205861936
aF40.264188177226281
aF48.52104463337281
aF25.268941340900565
aF40.869155883799998
aF49.192401885999999
aF23.737333297700001
aF43.6106987
aF46.875534057599999
aF21.1916007996
aF43.295700073200003
aF47.637535095200001
aF20.258600234999999
aF44.707698821999998
aF46.1295318604
aF21.155601501500001
aF45.0064163208
aF45.578762054400002
aF21.947759628299998
aF45.572700500499998
aF46.160533905000001
aF19.957601547199999
aF45.822246551500001
aF47.189399719199997
aF19.698263168299999
aF46.861698150599999
aF45.404533386200001
aF20.241600036600001
aF46.543186187700002
aF44.475849151600002
aF20.715095519999998
aF47.280399322500003
aF45.185913085899998
aF19.259258270299998
aF47.919696807900003
aF46.077533721899997
aF21.105600357099998
aF47.447784423800002
aF46.294544219999999
aF22.063882827800001
aF48.6818962097
aF45.310359954799999
aF21.241998672499999
aF48.563697814900003
aF47.338531494100003
aF20.562601089499999
aF48.199699401899998
aF47.784534454300001
aF19.450601577800001
aF49.438697814900003
aF47.908535003700003
aF21.294601440400001
aF44.838699340799998
aF45.593532562299998
aF18.747600555399998
aF44.963699340799998
aF46.120532989499999
aF17.610601425199999
aF44.1086997986
aF44.485534668
aF18.905601501500001
aF44.106132507300003
aF44.043907165500002
aF19.813926696799999
aF43.345699310299999
aF43.8615341187
aF17.8316001892
aF44.052997589100002
aF43.514106750499998
aF17.078523635900002
aF42.481697082499998
aF42.678531646700002
aF18.273601532000001
aF41.934486389200003
aF43.047992706300001
aF19.140871048000001
aF41.788593292199998
aF42.521709442099997
aF17.447095870999998
aF43.152698516800001
aF41.372531890899999
aF18.621601104700002
aF43.716625213599997
aF41.558643341100002
aF19.535631179799999
aF42.347991943399997
aF40.667182922400002
aF18.829034805300001
aF44.0867004395
aF40.783535003700003
aF17.555601119999999
aF45.051048278800003
aF41.290977478000002
aF17.530561447099998
aF44.243129730200003
aF39.713752746600001
aF17.694150924700001
aF43.411697387700002
aF40.996532440199999
aF16.275600433299999
aF42.414649963400002
aF40.836128234900002
aF16.2592983246
aF44.010700225800001
aF41.369533538799999
aF15.1536006927
aF45.329700469999999
aF41.532531738300001
aF15.1436004639
aF45.861759185799997
aF41.371589660600002
aF15.9868745804
aF45.7939224243
aF41.816600799600003
aF14.292775154099999
aF43.2537002563
aF41.572532653800003
aF14.0926008224
aF42.254219055199997
aF41.442024230999998
aF14.156697273300001
aF43.677062988300001
aF41.857532501199998
aF13.2210292816
aF42.424697876000003
aF44.894535064700001
aF17.168600082400001
aF42.200698852499997
aF44.840534210199998
aF15.9576005936
aF41.806697845499997
aF45.711532592799998
aF18.0166015625
aF41.983966827400003
aF45.629196167000003
aF19.007507324199999
aF40.814697265600003
aF46.691532135000003
aF17.567600250200002
aF40.318534851099997
aF46.3627243042
aF16.654472351100001
aF39.740699768100001
aF46.825534820599998
aF18.700601577800001
aF40.244564056400002
aF47.014717102100001
aF19.648456573499999
aF39.079849243200002
aF47.660564422599997
aF18.468009948700001
aF38.907699585000003
aF45.5225334167
aF18.809600830099999
aF38.4744262695
aF45.309677123999997
aF17.832324981700001
aF39.576747894299999
aF44.710556030299998
aF19.094497680700002
aF37.599697112999998
aF45.654533386200001
aF20.0146007538
aF38.576517457393635
aF45.56511540356292
aF21.54161435764588
aF39.278474918484221
aF46.396652366432505
aF21.589668419945685
aF37.917033617717472
aF45.606884604564456
aF22.406881179782612
aF39.129808057917849
aF44.627552897215857
aF21.55705826609594
aF41.381698608400001
aF48.053531646700002
aF17.2116012573
aF40.589698791499998
aF48.930534362800003
aF16.864601135299999
aF42.671699523900003
aF50.239532470699999
aF19.173601150500001
aF42.8873710632
aF49.296592712399999
aF19.464195251500001
aF42.190700530999997
aF51.175533294700003
aF20.174600601200002
aF41.9143180847
aF52.107673644999998
aF19.681827545200001
aF40.960697174099998
aF50.637535095200001
aF20.9386005402
aF41.331851959200002
aF49.6783599854
aF21.299613952600001
aF40.731952667199998
aF51.281055450399997
aF21.788103103600001
aF39.690700530999997
aF50.414531707800002
aF20.110601425199999
aF39.919540405299998
aF49.752441406199999
aF19.275516509999999
aF38.621700286900001
aF49.794532775900002
aF20.9616012573
aF38.3919754028
aF50.456306457499998
aF21.796695709200002
aF37.723834991499999
aF49.640544891399998
aF20.3630752563
aF38.9716072083
aF48.835708618200002
aF21.344118118299999
aF39.218700408899998
aF51.683532714800002
aF19.432600021399999
aF39.9977226257
aF52.050376892099997
aF18.764284133899999
aF38.316257476799997
aF51.475009918200001
aF18.857952117899998
aF39.001865387000002
aF52.439998626700003
aF20.1868152618
aF43.2537002563
aF51.561534881599997
aF21.185600280799999
aF43.010700225800001
aF52.4865341187
aF21.996601104700002
aF44.386699676500001
aF50.914531707800002
aF21.219600677500001
aF44.595474243200002
aF50.211578369100003
aF20.525074005099999
aF45.3746986389
aF51.157531738300001
aF22.2876014709
aF44.960269928000002
aF50.871761321999998
aF23.2543907166
aF46.661697387700002
aF50.348533630399999
aF22.045600891100001
aF47.118690490699997
aF50.691761016800001
aF21.1174545288
aF47.648696899400001
aF50.5245323181
aF23.192600250200002
aF47.192554473900003
aF50.181064605700001
aF24.121072769200001
aF48.547229766800001
aF49.940937042199998
aF22.9922103882
aF47.913516998299997
aF51.577709198000001
aF23.286371231099999
aF46.287696838400002
aF48.961532592799998
aF21.919601440400001
aF47.073108673100002
aF48.430889129599997
aF21.767446517900002
aF45.7456970215
aF52.613533019999998
aF22.415601730300001
aF45.8696975708
aF53.163532257100002
aF23.509601592999999
aF43.8696975708
aF55.114532470699999
aF24.809600830099999
aF44.336730957
aF54.4000892639
aF24.269647598300001
aF43.820697784399997
aF54.963531494100003
aF26.2676010132
aF42.901954650900002
aF55.3894348145
aF26.670856475800001
aF43.8546981812
aF53.452533721899997
aF26.603601455700002
aF44.495002746600001
aF52.904010772699998
aF25.912778854399999
aF44.146400451700003
aF53.223228454599997
aF27.628505706799999
aF42.434700012199997
aF52.901535034200002
aF26.417600631700001
aF41.904697418200001
aF52.622531890899999
aF25.176601409900002
aF42.510219573999997
aF52.729743957499998
aF24.276626586900001
aF40.5867004395
aF52.201534271200003
aF25.079601287799999
aF40.187107086200001
aF51.975444793699999
aF24.091009140000001
aF39.781700134300003
aF52.065532684300003
aF26.200601577800001
aF38.734745025599999
aF51.773078918499998
aF26.1202526093
aF40.3367004395
aF52.310531616200002
aF27.4406013489
aF39.734489981839026
aF52.195324171607737
aF28.32977709832582
aF41.643699646000002
aF52.713531494100003
aF27.553600311299999
aF42.076156616200002
aF52.890842437700002
aF28.5383052826
aF44.935699462899997
aF55.714534759499998
aF26.945600509599998
aF46.105697631799998
aF55.576534271200003
aF26.609600067100001
aF45.493698120099999
aF55.210533142099997
aF30.179601669299998
aF44.542102813699998
aF55.118778228799997
aF29.853803634599998
aF46.008697509800001
aF54.206531524699997
aF31.077600479099999
aF47.044483184800001
aF54.000686645499997
aF30.807641983
aF45.962699890099998
aF54.645534515400001
aF32.551601409900002
aF44.930755615199999
aF54.846504211400003
aF32.839355468800001
aF46.366722106899999
aF53.852085113500003
aF33.180335998499999
aF46.557983398399998
aF55.549438476600002
aF32.6807823181
aF45.203697204599997
aF52.915534973100002
aF30.9606018066
aF44.031700134300003
aF52.923534393300002
aF30.602600097700002
aF45.8696975708
aF51.841533660899998
aF31.3156013489
aF46.860317230200003
aF51.9092979431
aF31.500495910600002
aF45.226699829099999
aF50.5235328674
aF31.433601379399999
aF44.148301225448662
aF50.600798475055157
aF31.303916816836793
aF45.783699035600002
aF49.527534484900002
aF30.3926010132
aF46.872962951700003
aF49.564144134499998
aF30.408754348799999
aF45.329811812286721
aF48.083769868355411
aF30.704546250666574
aF44.245411744696945
aF48.003542238448738
aF30.669089888846543
aF45.754945548431223
aF47.377555409752524
aF29.997201920531094
aF45.67303358362652
aF47.762407963029744
aF31.688815042139584
aF45.427700042700003
aF49.935531616200002
aF28.9566001892
aF44.346920237393938
aF49.873040780419686
aF28.823539526818109
aF45.720233917199998
aF50.979068756099998
aF28.840183258100001
aF46.097698211699999
aF49.101531982399997
aF27.885601043699999
aF45.800583017983712
aF48.056247474223667
aF27.951142162212463
aF45.790904998800002
aF49.457592010500001
aF26.9021377563
aF47.1800613403
aF49.1877555847
aF27.981294632000001
aF45.4976997375
aF50.038532257100002
aF32.848602294899997
aF46.685699462899997
aF49.833534240699997
aF33.178600311300002
aF44.503898486326186
aF49.904550692397898
aF33.72503844106685
aF43.550965584217344
aF50.110031064317525
aF33.451909837631966
aF44.737224115993413
aF49.354218140790266
aF35.063285113902928
aF45.627330780000001
aF49.791698455800002
aF35.517341613799999
aF43.549159610054332
aF49.687444098176101
aF35.962625166045726
aF42.644986467067469
aF49.192939346293855
aF35.605583012050836
aF43.761104560453262
aF49.366165014627043
aF36.98230617191836
aF43.408145904500003
aF50.761169433600003
aF35.950637817400001
aF45.006905303301806
aF47.856770157975198
aF34.973394804621599
aF44.155247224219352
aF47.108057109939331
aF34.489493686126949
aF46.187541289150303
aF47.437412671356064
aF35.42309851032239
aF46.888523101799997
aF48.1109542847
aF35.742870330800002
aF46.547284334681237
aF46.01875622423568
aF35.414944449442835
aF46.397717839880848
aF45.635535508254577
aF34.407298522003678
aF48.043697357200003
aF45.929534912100003
aF35.694599151600002
aF48.516151428199997
aF46.471920013400002
aF34.875637054400002
aF48.227554321299998
aF46.4551239014
aF36.631645202599998
aF48.6236991882
aF44.536533355700001
aF35.776599883999999
aF47.853309761047136
aF43.550502513391066
aF35.628087649217626
aF49.867698669399999
aF44.400531768800001
aF35.950599670400003
aF45.680351062165805
aF45.219414548368924
aF36.414790046735206
aF45.727614617416329
aF45.471429080821686
aF37.624646047122532
aF44.86896229657922
aF44.249162946489093
aF35.949042619942453
aF44.722307005995596
aF43.813591648600152
aF34.566857782810892
aF45.686903028058452
aF43.581010188509232
aF34.114267687504785
aF44.211822162391307
aF44.58770000815192
aF33.99545705887838
aF43.859112282904597
aF42.559275308865864
aF34.612752998278495
aF44.49278898399438
aF41.681390113568852
aF34.733367529610305
aF43.231655906255426
aF42.472907476245652
aF33.730251358538609
aF43.023073846047865
aF42.767057182774401
aF35.868674448223899
aF42.680149068161711
aF41.820453267819936
aF36.276786765451561
aF42.179775185238213
aF43.417174095624176
aF35.644550358342869
aF43.972767207482512
aF43.494437462057178
aF36.816039593037644
aF43.398796557015473
aF44.179677217473497
aF37.435125269163898
aF44.700950749338638
aF42.528801464398342
aF37.754754445204554
aF44.075535255115135
aF42.02797383368263
aF38.690988510619384
aF45.994995474449681
aF42.264736794263882
aF37.548180273672486
aF46.48531446801961
aF42.731903791885173
aF36.784646830629768
aF46.796699523900003
aF41.4925346375
aF38.489601135299999
aF46.170814180267975
aF40.712632896783944
aF38.921506744724873
aF47.950698852499997
aF40.822532653800003
aF37.737602233899999
aF48.601119995099999
aF41.587345123299997
aF37.3131980896
aF48.522632598900003
aF40.201759338400002
aF38.427257537800003
aF47.550727844199997
aF40.201030731199999
aF36.936443328899998
aF47.363697051999999
aF42.314533233600002
aF39.629600524899999
aF47.864700317400001
aF41.7365341187
aF40.597599029500003
aF47.383697509800001
aF43.655532836900001
aF39.538600921600001
aF47.008293151899998
aF44.118110656699997
aF38.7230072021
aF48.002696991000001
aF44.480533599899999
aF40.583599090600003
aF48.871059417700003
aF43.959548950200002
aF40.986865997300001
aF48.455699920699999
aF45.831531524699997
aF40.0345993042
aF47.592723846399998
aF46.258335113500003
aF39.5235099792
aF48.704589843800001
aF46.445068359399997
aF40.900470733600002
aF49.634696960399999
aF45.794532775900002
aF39.087600707999997
aF49.656627655000001
aF44.827110290500002
aF38.5858917236
aF49.494525909399997
aF46.583396911599998
aF38.348583221399998
aF50.946697235099997
aF46.014533996600001
aF39.819599151600002
aF51.017700195300002
aF45.809532165500002
aF41.046600341800001
aF51.918697357200003
aF46.385532379200001
aF39.1436004639
aF47.051700592000003
aF44.693534851099997
aF41.7516021729
aF47.527698516800001
aF44.8815345764
aF42.897602081300001
aF45.7496986389
aF44.676532745400003
aF41.522602081300001
aF45.3556518555
aF44.487857818599998
aF40.6119804382
aF44.821697235099997
aF44.998535156199999
aF42.6396026611
aF45.195770263699998
aF45.845161437999998
aF43.2152633667
aF43.408699035600002
aF45.316532135000003
aF42.168601989700001
aF42.768344879200001
aF45.423274993900002
aF43.044189453100003
aF43.368698120099999
aF46.613533019999998
aF41.343601226799997
aF44.008499145499997
aF46.507381439200003
aF40.467536926299999
aF42.348719495864565
aF46.814192545734393
aF41.031267828051263
aF43.723869323700001
aF47.443977355999998
aF41.9537773132
aF42.783478386595327
aF44.216807407149247
aF41.294568075116089
aF42.769589140337594
aF43.266432759594586
aF41.827554000988741
aF41.754077208788182
aF44.481624842464093
aF41.052851055352619
aF43.343772998026886
aF44.096780419589841
aF40.36746211506459
aF44.807697296100002
aF43.810531616200002
aF43.589599609399997
aF45.0016975403
aF42.654533386200001
aF43.174602508500001
aF44.554698944099997
aF44.085533142099997
aF44.864601135299999
aF44.467437744100003
aF45.034412383999999
aF45.199436187700002
aF44.433700561499997
aF42.987533569299998
aF45.838600158699997
aF45.169456481899999
aF42.201950073200003
aF45.666503906199999
aF44.677700042700003
aF43.590534210199998
aF47.220600128199997
aF43.942855835000003
aF44.372692108199999
aF47.411209106400001
aF44.584598541299997
aF42.812747955299997
aF47.978546142600003
aF45.6800117493
aF44.017082214399998
aF47.259666442899999
aF43.075698852499997
aF42.341533660899998
aF45.747600555399998
aF42.9856987
aF41.182533264200003
aF46.1396026611
aF42.026699066200003
aF43.055534362800003
aF45.2845993042
aF42.171768188500003
aF44.009452819800003
aF44.986118316700001
aF40.671699523900003
aF42.527534484900002
aF45.2716026306
aF40.738674163799999
aF41.444530487100003
aF45.375125885000003
aF39.802700042700003
aF43.074531555199997
aF46.4066009521
aF39.718742370599998
aF44.157104492199998
aF46.3112449646
aF38.810050964399998
aF42.627494812000002
aF46.352687835700003
aF40.259555816700001
aF42.829109191900002
aF47.365322112999998
aF40.030696868900002
aF42.815532684300003
aF43.922599792500002
aF40.068698883099998
aF43.977531433099998
aF43.447601318399997
aF39.491826252729837
aF41.790809253070435
aF43.252062573157311
aF39.578643798800002
aF40.862384796100002
aF43.640510559100001
aF38.884181836975372
aF41.890421519536083
aF41.906507996543461
aF39.384948011057688
aF42.697031227786638
aF41.374073438017973
aF39.172199862445183
aF40.60731095227878
aF41.108983737138495
aF38.825538366548123
aF40.727390807915505
aF40.08565455490784
aF40.250576876777103
aF40.44205604008868
aF41.080422143378577
aF38.548320479594068
aF39.478307513938454
aF41.689183417958517
aF38.776510224234109
aF38.694565179946856
aF41.160015118983509
aF37.380863768495018
aF42.242535504887186
aF41.94816712305051
aF36.774474254518665
aF42.199599670377218
aF43.023545388035757
aF36.753173673096654
aF42.621795966546351
aF40.817401975085488
aF37.287400868692451
aF42.605289012196927
aF39.953865058189038
aF35.308834882209077
aF42.962340266872182
aF40.754255006624788
aF35.155422901494674
aF43.869898098639688
aF41.334801763907322
aF34.815199481252591
aF43.209760651055305
aF39.310343380735453
aF34.907534537884899
aF42.278499727505412
aF38.757177852982224
aF33.753168566542499
aF43.457969890070707
aF39.346753362947361
aF35.535439750537449
aF44.32039071082157
aF38.528057811811422
aF35.349547903729814
aF45.28307250617263
aF39.006031032699433
aF36.602669090433558
aF44.124644528060379
aF38.540126529069624
aF35.070840962656156
aF44.370298346862072
aF37.060328561009875
aF35.194478785680566
aF43.388271199135396
aF36.607749783890327
aF34.017614573849315
aF44.646344494030245
aF37.013410179158853
aF35.901304606890626
aF45.36923891914337
aF36.250687375746985
aF35.798681340823066
aF46.365332337292749
aF36.687056685911351
aF36.954824988754197
aF45.082037412588186
aF36.306888381521766
aF35.490753207767312
aF45.40998487245308
aF34.83000865817219
aF34.503022247489156
aF45.639229489498703
aF34.710640503201247
aF36.034184127404764
aF46.105680306082249
aF34.332857392213143
aF35.662710979695788
aF44.520679660549838
aF34.348237810335853
aF34.496309137157922
aF41.802737549718778
aF41.362799333813442
aF34.687691411707426
aF40.665435156003817
aF40.94039801609636
aF33.573262115899269
aF42.032294715503404
aF42.314948630676149
aF32.896792923666723
aF40.930379179157988
aF42.991230800921215
aF33.565769195599998
aF40.250919342000003
aF43.537143707299997
aF32.325846593434925
aF40.362845881567971
aF42.255753434878315
aF31.956699371300001
aF41.6175346375
aF43.955600738500003
aF32.487792968800001
aF41.877182006799998
aF44.871364593499997
aF31.087835311900001
aF41.006759643599999
aF44.2008247375
aF31.512699127200001
aF42.959533691399997
aF43.118602752699999
aF31.066078185999999
aF43.845993042000003
aF43.568958282499999
aF30.884716095747375
aF42.650405480856826
aF42.286844761971572
aF32.886037358777905
aF43.311281076874856
aF42.567074212081693
aF32.757358337292196
aF43.83425468400344
aF41.622587297231782
aF33.566699981699998
aF44.293533325200002
aF43.523601532000001
aF33.033699035600002
aF45.396533966100002
aF43.746601104699998
aF34.795700073200003
aF44.0065345764
aF44.025600433299999
aF35.2395133972
aF43.106647491499999
aF43.910118103000002
aF35.507698059100001
aF45.038532257100002
aF44.773601532000001
aF34.916614532499999
aF45.424354553199997
aF45.604179382300003
aF36.788700103799997
aF44.420532226600002
aF45.331600189200003
aF37.395488739000001
aF44.037818908699997
aF44.510967254599997
aF37.351428985600002
aF45.1789245605
aF45.875915527300002
aF36.5343856812
aF43.603324890099998
aF46.0065803528
aF35.847698211699999
aF46.213531494100003
aF43.865600585899998
aF36.168203206023577
aF46.007423375929015
aF42.68632761545252
aF35.8726997375
aF47.430534362800003
aF44.4095993042
aF35.655696868900002
aF47.7415351868
aF45.840599060099997
aF36.327342987100003
aF47.143024444600002
aF46.456050872799999
aF34.623100280800003
aF47.525177002
aF46.114517211900001
aF35.968700408899998
aF49.205532073999997
aF45.903602600100001
aF37.027191162100003
aF49.348823547400002
aF46.120773315400001
aF35.371162414600001
aF49.678569793699999
aF46.682888030999997
aF35.605697631799998
aF49.750534057599999
aF44.538600921600001
aF36.139606475800001
aF50.674114227300002
aF44.314895629900001
aF34.534255981400001
aF49.913532257100002
aF44.422218322799999
aF36.075698852499997
aF48.6265335083
aF43.583599090600003
aF35.446674346899997
aF48.502983093300003
aF42.702033996600001
aF37.513698577900001
aF48.886531829799999
aF43.148601532000001
aF37.743698120099999
aF49.823532104500003
aF42.365600585899998
aF38.464698791499998
aF48.122531890899999
aF43.676601409900002
aF38.222103118900002
aF47.338535308799997
aF44.2653236389
aF39.882698059100001
aF48.435531616200002
aF43.486602783199999
aF40.143512725800001
aF49.3383102417
aF44.038936614999997
aF40.7537002563
aF47.271533966100002
aF44.004600524899999
aF40.606224060099997
aF46.416725158699997
aF43.344558715799998
aF41.773796081500002
aF47.640502929699998
aF43.897987365699997
aF40.5166969299
aF46.845531463599997
aF45.446601867699997
aF39.330699920699999
aF46.8805351257
aF45.868602752699999
aF41.489700317400001
aF46.444534301799997
aF46.089599609399997
aF40.290699005100002
aF48.7575340271
aF42.044601440400001
aF41.071697235099997
aF49.690532684300003
aF41.801601409900002
aF39.813324698992581
aF47.998089167960003
aF41.045466717797822
aF39.234108232466966
aF47.199092808617699
aF41.28404677964231
aF40.237739067313484
aF48.166954168624159
aF39.63998283573769
aF41.324517502869114
aF48.221496740784069
aF39.647167151635408
aF39.824287967420709
aF46.933444140251545
aF38.801211513550392
aF40.100390579115839
aF46.044589135986875
aF39.370630605847722
aF38.306161393298567
aF46.871916822623533
aF38.555178351210955
aF37.986881433905367
aF47.681151297432578
aF37.896957149616547
aF38.065330334133272
aF45.922029632798207
aF38.08242692404604
aF37.76483398789366
aF46.934798491995629
aF39.499424239342567
aF40.543956038640005
aF46.828605769393654
aF37.439335018330354
aF40.176505916858595
aF45.943635062679121
aF36.916782637916342
aF40.315539462540961
aF47.699140763173801
aF36.824729800405372
aF42.064621565277456
aF46.690506470829561
aF37.569232906189981
aF42.304324539200294
aF45.895923037391306
aF38.275154002433041
aF42.489741635630367
aF46.446343519185504
aF36.59567166794654
aF42.50418673141035
aF47.622441915191473
aF37.919271391259748
aF39.757877466297423
aF49.486503025878456
aF39.021088750286658
aF40.432098000875811
aF50.053658636211409
aF38.161003014472136
aF38.627799252630524
aF50.017138816429977
aF39.493102347750202
aF38.179564995443847
aF49.557044842123631
aF40.276184358491811
aF38.135700225800001
aF51.332534789999997
aF39.088600158699997
aF38.325728226507117
aF51.469629809744049
aF38.022943241798998
aF36.612697601299999
aF51.415534973100002
aF39.311599731400001
aF36.3525619507
aF50.9287834167
aF40.251548767099997
aF36.251426696800003
aF52.443855285600002
aF39.323398590099998
aF35.846292202747421
aF50.68422187068586
aF38.222786126734277
aF35.357130240017568
aF49.382292965705716
aF38.446448640243752
aF35.500895426291798
aF48.909349790843095
aF39.406993869712124
aF34.68391651613134
aF48.694172077891103
aF37.420633246638928
aF34.291765897340895
aF47.703545546567717
aF37.596723474267854
aF34.505102753842777
aF49.301510935173745
aF36.165692525151229
aF33.994121745502405
aF48.769829888308784
aF35.375198111619284
aF34.975554991544243
aF50.607355210567277
aF35.943574479432506
aF34.82466761385313
aF51.07528330032526
aF34.979802702695224
aF35.645230881977099
aF51.296988423459084
aF36.971237873887496
aF36.015232809017938
aF52.295605341820114
aF36.797043128891382
aF38.882698059100001
aF52.457534789999997
aF39.800601959200002
aF39.216697692899999
aF53.468532562299998
aF39.203601837199997
aF39.172698974600003
aF52.262535095200001
aF41.098602294899997
aF38.774326324500002
aF51.476043701199998
aF41.591381073000001
aF39.976699829099999
aF53.206531524699997
aF41.847599029500003
aF39.632072448700001
aF54.238479614299997
aF41.781143188500003
aF40.039699554400002
aF52.777534484900002
aF43.337600707999997
aF40.318649292000003
aF51.7252845764
aF43.392917633099998
aF41.062698364299997
aF53.6115341187
aF44.085601806600003
aF40.784152984599999
aF54.663932800300003
aF44.031116485600002
aF41.094692230200003
aF53.298244476299999
aF45.129116058299999
aF42.0452957153
aF53.472484588599997
aF43.634750366200002
aF38.631698608400001
aF52.828533172599997
aF43.955600738500003
aF38.330406189000001
aF53.874538421600001
aF44.012119293200001
aF37.955986022899999
aF52.291809082
aF43.2896881104
aF38.573699951199998
aF52.210533142099997
aF45.339599609399997
aF39.248851776099997
aF52.747058868400003
aF46.006240844700002
aF37.556072235099997
aF52.275478362999998
aF45.724723815899999
aF38.874435424799998
aF51.164329528800003
aF45.283809661900001
aF41.365699768100001
aF53.332534789999997
aF41.221599578899998
aF41.871700286900001
aF54.458534240699997
aF41.030601501500001
aF41.960697174099998
aF52.200534820599998
aF40.847599029500003
aF41.517559051500001
aF51.309242248499999
aF41.018848419199998
aF43.283699035600002
aF52.208534240699997
aF40.228599548299997
aF43.942348480200003
aF52.8043861389
aF40.860454559300003
aF43.861698150599999
aF50.804534912100003
aF40.110599517799997
aF43.217861175499998
aF50.198375701899998
aF39.473304748499999
aF44.858909606899999
aF50.857124328600001
aF39.673675537100003
aF43.922607421899997
aF50.3517684937
aF41.100246429400002
aF43.2486991882
aF52.854534149199999
aF38.830600738500003
aF44.200698852499997
aF53.546531677200001
aF38.480602264399998
aF42.200698852499997
aF52.6175346375
aF38.0345993042
aF41.483886718800001
aF51.972438812299998
aF38.334819793699999
aF42.091697692899999
aF53.201534271200003
aF36.701599121100003
aF42.9944419861
aF52.958656310999999
aF36.141098022500003
aF40.886699676500001
aF52.663532257100002
aF35.940601348900003
aF39.974266052200001
aF52.906955719000003
aF36.484947204599997
aF40.850017547599997
aF53.116718292199998
aF34.949954986599998
aF40.972467943777851
aF51.581516339030557
aF35.835642965859371
aF42.035697937000002
aF54.723533630399999
aF36.821601867699997
aF42.702697753899997
aF55.462532043499998
aF36.093601226799997
aF41.261699676500001
aF55.217533111599998
aF37.788600921600001
aF40.671352386499997
aF54.611560821499999
aF38.340312957800002
aF41.157699585000003
aF56.672534942600002
aF37.996601104699998
aF40.926368713400002
aF57.177680969199997
aF37.058830261200001
aF40.0156974792
aF56.9035339355
aF38.965599060099997
aF40.236869812000002
aF56.411281585700003
aF39.912631988500003
aF39.891433715799998
aF57.973388671899997
aF39.133129119899998
aF39.096214294399999
aF56.492317199699997
aF38.5490112305
aF42.4856987
aF57.243534088099999
aF38.445602417000003
aF42.966697692899999
aF58.261531829799999
aF37.944599151600002
aF33.165699005100002
aF58.683532714800002
aF35.348602294899997
aF33.813831329300001
aF58.989154815699997
aF34.636829376199998
aF32.063697814900003
aF57.800533294700003
aF34.952602386499997
aF31.3412761688
aF57.619098663300001
aF35.7483940125
aF31.332698822000001
aF58.3815345764
aF33.713600158699997
aF32.078037262000002
aF58.714992523200003
aF32.9915351868
aF30.4416980743
aF57.340534210199998
aF33.073600769000002
aF29.695758819600002
aF57.0069084167
aF33.794963836699999
aF29.940832138099999
aF57.773105621299997
aF32.207508087199997
aF31.045412063600001
aF56.490230560299999
aF32.756401062000002
aF30.565698623700001
aF59.661533355700001
aF34.079601287800003
aF29.770561218299999
aF59.385723114000001
aF34.772266387899997
aF31.262802124
aF60.335643768300002
aF34.577320098900003
aF29.964698791499998
aF60.357532501199998
aF32.8706016541
aF29.267089843800001
aF59.684158325200002
aF32.372596740699997
aF29.435792923000001
aF61.254512786900001
aF33.192760467500001
aF30.759330749499998
aF60.634078979500003
aF32.177650451700003
aF32.6256980896
aF56.431533813500003
aF34.6366004944
aF33.680698394799997
aF56.360534668
aF34.0216026306
aF31.9786987305
aF55.385532379200001
aF35.094600677499997
aF31.2034282684
aF55.510143280000001
aF35.729839325
aF32.348697662399999
aF54.021533966100002
aF34.709602355999998
aF33.303787231400001
aF54.0404129028
aF34.184673309300003
aF32.438407897899999
aF53.405044555700002
aF35.604026794399999
aF31.288698196399999
aF53.414531707800002
aF33.791599273700001
aF30.091699600199998
aF53.555534362800003
aF34.0116004944
aF31.783699035600002
aF52.699531555199997
aF32.735599517799997
aF32.787062873009937
aF52.576431242410138
aF32.64117063342875
aF30.893372678584626
aF52.021377531879949
aF31.79009435041597
aF29.845754623400001
aF52.303268432599999
aF31.981542587300002
aF31.241699218800001
aF52.437534332299997
aF30.357601165799998
aF32.233413951171244
aF52.049481859021498
aF30.120618249417767
aF30.538814544699999
aF51.965065002400003
aF29.6714305878
aF31.268699646000002
aF53.955532073999997
aF30.099601745600001
aF32.0568962097
aF54.414730071999998
aF30.696247100800001
aF31.541698455799999
aF54.209533691399997
aF28.607601165799998
aF30.753616333
aF53.7509994507
aF28.0102977753
aF31.561937332199999
aF55.2829017639
aF28.4189929962
aF32.503311157200002
aF53.774982452400003
aF28.334531784100001
aF29.994699478099999
aF54.685531616200002
aF30.507600784299999
aF29.822261810299999
aF54.547599792500002
aF31.574998855600001
aF30.099439620999998
aF55.748733520499997
aF30.2914123535
aF29.149877548199999
aF54.283138275100001
aF29.9486255646
aF31.033259944304085
aF50.512661577666883
aF31.971762752346187
aF32.144723053000604
aF49.984911022354275
aF31.914816281324729
aF29.918179618106787
aF49.821161938422208
aF32.183916689766143
aF29.032212972634976
aF50.314884695838451
aF32.168400330275567
aF29.902402992018551
aF48.396784554677559
aF32.534721735789596
aF30.816258665275939
aF47.926788736032606
aF32.171329877833315
aF29.845379564873809
aF48.226036101678041
aF34.063752676871303
aF29.505716565791797
aF49.154461987202737
aF34.52344896568853
aF29.124196442132771
aF47.455811194319828
aF34.340013038997526
aF31.22178704363224
aF47.850505105566164
aF34.630027851515088
aF31.96929738357932
aF48.53981522435592
aF34.236230536165841
aF31.193523625785605
aF47.983887326844552
aF35.710064850028651
aF31.645797063260073
aF46.405873542315504
aF34.327342624343764
aF30.805423300646602
aF45.571546258712573
aF33.907254104418513
aF32.820664508710607
aF46.062464690916158
aF34.587165242050901
aF28.752999412086275
aF47.645949928299643
aF31.87161901312118
aF27.71343004270156
aF48.215367029290562
aF31.548645676678763
aF28.937995670744773
aF46.342801117818723
aF31.695960546951426
aF29.815995439464618
aF45.93037369769322
aF32.002419695662759
aF27.911626365206878
aF45.428505337380045
aF31.199737791818571
aF27.029637602793436
aF45.998882089570365
aF30.910397163098022
aF28.427993773354935
aF44.717441241035381
aF29.942727848901797
aF27.575055975231479
aF44.288249321402525
aF29.421448783551224
aF28.881380353618816
aF45.445745815954524
aF29.272141778586068
aF29.437354928171391
aF43.612015630094469
aF30.261326276026463
aF30.491219743087417
aF43.890668186409464
aF30.876463988994544
aF29.225769482811049
aF42.441227957354606
aF29.871176117039102
aF27.449833712870234
aF44.425256707562895
aF32.264028327481483
aF26.560406746905759
aF43.633314495745552
aF31.983204229627415
aF28.058084234498306
aF44.422731940025464
aF33.456099780919324
aF28.789075564884996
aF45.107201911325816
aF33.618875157694767
aF27.916853193364624
aF43.341996345207811
aF34.438728704718379
aF27.217674018615703
aF42.602027539141986
aF34.049164473320417
aF29.262069554678792
aF42.637934742556531
aF34.610375460598327
aF29.098326626101311
aF41.708861033921721
aF35.15353073604291
aF29.681136742352301
aF42.415662810817111
aF33.62970744101483
aF30.181189005193843
aF43.433229199929002
aF35.329850550693898
aF30.384933526472874
aF44.225701278828694
aF34.781298760562521
aF27.392910840120621
aF43.785719886563314
aF35.804873211053881
aF27.670691604968507
aF44.89244602791625
aF36.271365841475045
aF26.706770710632394
aF42.880926127791284
aF36.506126197191122
aF26.458674274637684
aF42.006454093295368
aF36.047232109484497
aF26.305727200087627
aF43.076418018599853
aF37.904333941578635
aF25.6863288879
aF43.967071533199999
aF37.973945617699997
aF25.494699478099999
aF41.862533569299998
aF38.3936004639
aF26.091629028300002
aF40.967102050800001
aF38.220470428500001
aF25.3329944611
aF41.989414215099998
aF39.464046478299998
aF24.144699096699998
aF41.719532012899997
aF37.687599182100001
aF23.491760253900001
aF42.458412170400003
aF38.152179717999999
aF24.226123809800001
aF41.927116394000002
aF36.620651245099999
aF23.523698806799999
aF40.336532592799998
aF37.869602203399999
aF24.155698776200001
aF39.4035339355
aF38.377601623499999
aF22.295698165899999
aF40.212532043499998
aF37.367599487299998
aF21.809062957799998
aF39.330760955800002
aF37.4435424805
aF21.857122421300001
aF41.0008811951
aF36.913440704300001
aF27.526353134327291
aF43.315037813467725
aF38.808733961735598
aF27.580698013300001
aF44.318534851099997
aF39.529602050800001
aF28.543336706782714
aF42.447244882138747
aF38.728175757646383
aF28.438356532307321
aF41.633934395511488
aF38.126984264889671
aF29.763900076808294
aF42.569357997770176
aF39.524298555137257
aF29.4814829573499
aF42.523860126993114
aF40.573247923831339
aF30.695306490560576
aF41.389842629669069
aF39.212737453135475
aF30.951354574943725
aF41.38204657309646
aF38.151675362189515
aF31.611755264980129
aF41.474962776544992
aF39.79726241469551
aF30.204580760694206
aF40.451510133312084
aF39.465039017726113
aF30.484712224819418
aF43.906674447733714
aF39.294748091632769
aF30.891875562299941
aF44.562796789042501
aF40.253515406366354
aF30.616768011983069
aF44.328821721490513
aF38.038873417737513
aF30.252711842586322
aF43.755328868536154
aF37.282771715053421
aF31.281708077926893
aF45.57075305976462
aF37.674193232055927
aF32.250047367517325
aF45.624656063972445
aF38.169933436750256
aF31.444939896001294
aF45.553957124578908
aF36.606956069294455
aF30.489373924034059
aF46.826301518414603
aF38.028893181295039
aF31.092403274678603
aF47.777246673456126
aF38.513887274648596
aF29.156374381698303
aF46.830246911437236
aF37.901046717736733
aF28.701801419324433
aF46.0387129074889
aF37.452056228619654
aF28.3196983337
aF47.925533294700003
aF38.429599762000002
aF28.6667003632
aF48.886734008799998
aF38.050411224400001
aF26.8226985931
aF47.7365341187
aF38.066600799600003
aF26.5328063965
aF46.700428008999999
aF38.241382598900003
aF25.9766979218
aF48.650531768800001
aF38.931602478000002
aF26.265714645399999
aF49.686916351299999
aF38.757011413599997
aF24.9245624542
aF48.5197372437
aF38.6786155701
aF26.1308250427
aF48.402889251700003
aF39.981845855700001
aF26.6016979218
aF47.943534851099997
aF36.584602355999998
aF26.760107040400001
aF49.009197235099997
aF36.419166564900003
aF27.3691888082598
aF47.415425031954065
aF36.021664108749739
aF25.263698577900001
aF47.536533355700001
aF36.004600524899999
aF24.468948364300001
aF48.101409912100003
aF36.491825103799997
aF25.252729415899999
aF47.7439346313
aF34.9345703125
aF25.104776382400001
aF46.470825195300002
aF36.169254303000002
aF28.541698455799999
aF48.106533050499998
aF39.914600372300001
aF28.717699050899999
aF49.249534606899999
aF40.425601959200002
aF28.581699371300001
aF47.009532928500001
aF40.693599700900002
aF28.3742427826
aF46.090480804400002
aF40.3297309875
aF28.850698471099999
aF47.145534515400001
aF42.1366004944
aF28.1641578674
aF47.858776092500001
aF42.592723846399998
aF28.646697998
aF45.7675323486
aF42.804599762000002
aF27.666551590000001
aF45.3849487305
aF42.519924163799999
aF29.4197502136
aF45.0887718201
aF42.4443588257
aF28.7296981812
aF45.871532440199999
aF44.322601318399997
aF28.738855361900001
aF44.878780364999997
aF44.7725563049
aF29.662044525100001
aF46.384979248
aF44.557559967000003
aF27.581699371300001
aF46.659534454300001
aF44.913600921600001
aF26.440698623700001
aF46.364532470699999
aF44.580600738500003
aF27.896697998
aF47.598533630399999
aF45.795600891100001
aF27.167312622099999
aF48.1534156799
aF46.220108032200002
aF28.8645248413
aF47.754428863500003
aF46.038730621299997
aF30.2376995087
aF47.701534271200003
aF42.383602142299999
aF30.394699096699998
aF48.566532135000003
aF43.260601043699999
aF31.236698150599999
aF47.304534912100003
aF41.590599060099997
aF31.062583943887844
aF46.595725167822529
aF40.890544920947256
aF32.578697204599997
aF47.795532226600002
aF41.7646026611
aF32.908515930199997
aF47.641895294199998
aF42.792079925499998
aF33.512671845208587
aF47.012190200739063
aF40.830560798503534
aF33.24267280332807
aF47.18604697744383
aF39.790967199038199
aF34.540136778169483
aF47.337825889670768
aF40.983758027511968
aF33.448433052941837
aF45.947590845076398
aF41.04535189005972
aF32.617698669399999
aF49.297534942600002
aF41.475601196299998
aF33.278697967500001
aF50.076534271200003
aF42.1595993042
aF31.8746986389
aF49.7575340271
aF40.459602355999998
aF31.367403030399998
aF49.134674072300001
aF39.847393035899998
aF31.840698242199998
aF51.174533844000003
aF40.176601409900002
aF32.861263275100001
aF51.555381774899999
aF40.137851715099998
aF31.1126995087
aF51.5225334167
aF38.863601684599999
aF30.1146297455
aF51.084434509300003
aF38.869014739999997
aF31.0026988983
aF53.019535064700001
aF38.7456016541
aF32.000453948999997
aF53.458335876500001
aF38.739654541
aF30.488611221300001
aF53.2746696472
aF37.818931579599997
aF30.4392871857
aF53.410861969000003
aF39.592670440699997
aF31.808698654200001
aF50.960533142099997
aF37.614601135299999
aF32.685009002699999
aF51.579986572300001
aF37.423660278299998
aF32.146299425195352
aF49.944522708534542
aF37.800008870982957
aF30.932895095473782
aF50.946972078869813
aF36.36717148412621
aF30.6147613525
aF51.958370208700003
aF36.158889770499997
aF31.510336235615792
aF50.578928011104459
aF35.520017608997406
aF30.062654869823813
aF50.311083042875772
aF36.528863983792689
aF31.175699234
aF51.907531738300001
aF41.361602783199999
aF31.7006988525
aF52.916534423800002
aF41.817600250200002
aF33.438697814900003
aF52.3975334167
aF44.197601318399997
aF32.895912170400003
aF52.090984344500001
aF43.402923584
aF34.6046981812
aF53.228534698499999
aF43.955600738500003
aF35.404571533199999
aF52.967105865500002
aF44.6483917236
aF35.1077003479
aF53.0065345764
aF42.5166015625
aF36.129264831500002
aF53.380737304699998
aF42.449741363500003
aF35.099445342999999
aF51.935810089100002
aF42.3126831055
aF34.283699035600002
aF53.685531616200002
aF41.549602508500001
aF34.626827239999997
aF53.524642944299998
aF40.6675720215
aF34.308700561499997
aF54.716533660899998
aF44.1525993347
aF35.259696960399999
aF55.476531982399997
aF44.299602508500001
aF28.170698165899999
aF55.014533996600001
aF37.694599151600002
aF27.456699371300001
aF54.717533111599998
aF38.946601867699997
aF26.755552291899999
aF55.518630981400001
aF39.180557251000003
aF28.164995193500001
aF54.6041183472
aF39.767303466800001
aF26.765699386600001
aF53.427532196000001
aF38.603599548299997
aF25.746387481700001
aF53.644920349099998
aF38.284465789800002
aF26.740993499799998
aF52.791782379200001
aF39.488651275599999
aF27.5546989441
aF52.787532806400002
aF37.509601592999999
aF26.853269576999999
aF52.184173584
aF36.933361053500001
aF28.404264450100001
aF52.172298431400002
aF37.805950164800002
aF28.036699294999998
aF53.973533630399999
aF36.666599273700001
aF28.9897022247
aF53.873199462899997
aF36.147163391100001
aF26.9476985931
aF54.324531555199997
aF35.663600921600001
aF25.8706989288
aF54.8675346375
aF35.932601928700002
aF27.1916980743
aF53.952533721899997
aF34.3885993958
aF28.147010803200001
aF53.736579894999998
aF34.141933441200003
aF26.185699462900001
aF53.900531768800001
aF33.348602294899997
aF25.183794021600001
aF53.926589965799998
aF33.777095794700003
aF26.317699432400001
aF55.0055351257
aF32.286602020300002
aF27.253656387300001
aF54.878681182900003
aF31.7425498962
aF25.161699294999998
aF54.914531707800002
aF31.324600219699999
aF24.225347518900001
aF55.041763305700002
aF31.8678855896
aF25.253061294599998
aF55.696704864499999
aF30.570966720600001
aF25.1691894531
aF53.939205169700003
aF30.838001251200001
aF26.436698913600001
aF56.415534973100002
aF32.895599365199999
aF25.513000488300001
aF56.630828857399997
aF33.432750701899998
aF27.271501541100001
aF56.4117126465
aF33.596450805700002
aF26.668699264499999
aF57.485534668
aF31.8356018066
aF25.834022522000001
aF57.490272521999998
aF31.134607315099998
aF26.745727539099999
aF58.461593627900001
aF32.3146362305
aF27.592523574800001
aF57.271152496299997
aF31.298301696799999
aF26.297698974599999
aF52.498535156199999
aF32.707599639900003
aF27.313697814899999
aF52.136531829799999
aF32.105602264399998
aF25.3056983948
aF51.657531738300001
aF32.947601318399997
aF24.484182357800002
aF51.950531005899997
aF33.456878662100003
aF25.3736991882
aF50.279533386200001
aF32.480602264399998
aF26.413839340199999
aF49.954017639200003
aF32.496311187700002
aF24.786909103399999
aF49.651790618900002
aF33.151210784900002
aF24.834699630700001
aF50.136531829799999
aF31.075601577800001
aF24.0576992035
aF50.977531433099998
aF30.575601577800001
aF25.206699371300001
aF49.047534942600002
aF30.428600311299999
aF25.937852859500001
aF48.485576629599997
aF30.840570449800001
aF24.720699310299999
aF48.685531616200002
aF29.098600387600001
aF23.806165695200001
aF49.227531433099998
aF28.857843399
aF25.733697891199999
aF48.8835334778
aF27.9406013489
aF25.894384384199999
aF49.956569671600001
aF27.836324691800002
aF27.079698562600001
aF48.184532165500002
aF28.155601501500001
aF26.950153516813838
aF47.10797199786527
aF28.252495566880821
aF27.728567123400001
aF48.373592376700003
aF27.300424575800001
aF27.556473967279306
aF48.561083143236061
aF29.05570825621324
aF25.116699218800001
aF48.439533233600002
aF26.591600418100001
aF24.2262954712
aF49.033573150599999
aF26.385692596399998
aF25.843753814700001
aF48.586757659900002
aF25.7929668427
aF24.845094680799999
aF47.385272979699998
aF26.645177841199999
aF24.192699432400001
aF47.244533538799999
aF29.175600051899998
aF24.938697814899999
aF46.342533111599998
aF29.526601791400001
aF22.917697906499999
aF47.069534301799997
aF28.8406009674
aF22.347684860200001
aF47.845638275100001
aF28.535894393900001
aF22.300699234
aF45.732532501199998
aF28.905601501500001
aF22.417007446300001
aF45.231761932399998
aF27.944456100499998
aF22.789224624599999
aF45.144489288300001
aF29.682548522899999
aF20.832698822000001
aF45.844532012899997
aF29.225601196300001
aF20.202697753900001
aF46.894535064700001
aF29.026601791400001
aF20.4826984406
aF44.2725334167
aF35.111602783199999
aF19.8347072601
aF44.624645233199999
aF34.421508789100002
aF21.4326992035
aF45.210533142099997
aF35.714599609399997
aF22.178300857499998
aF44.6580200195
aF36.286357879599997
aF22.157699585
aF46.039531707800002
aF34.627601623499999
aF21.3504428864
aF46.560272216800001
aF34.112556457499998
aF22.821054458599999
aF46.7686271667
aF35.092876434300003
aF22.9476985931
aF45.201534271200003
aF33.6206016541
aF22.266408920300002
aF44.539707183799997
aF33.085872650100001
aF23.645698547399999
aF46.120532989499999
aF32.627601623499999
aF24.327547073400002
aF46.782390594500001
aF33.161575317400001
aF24.207998275800001
aF45.521892547599997
aF31.9109783173
aF22.902000427200001
aF46.716220855700001
aF32.098293304400002
aF23.9266986847
aF44.289531707800002
aF34.330600738500003
aF23.3825569153
aF43.6186561584
aF34.995380401600002
aF24.477222442599999
aF43.703361511200001
aF33.594783782999997
aF24.625825882000001
aF44.889354705800002
aF34.913295745799999
aF20.824699401899998
aF46.1535339355
aF36.734600067099997
aF21.583698272700001
aF46.854534149199999
aF37.422599792500002
aF25.407699585
aF50.071533203100003
aF23.0846004486
aF25.626903533899998
aF49.194679260299999
aF22.633850097700002
aF26.468698501599999
aF51.052532196000001
aF23.235601425199999
aF26.4278697968
aF51.445697784399997
aF24.251401901200001
aF27.849699020399999
aF50.3995323181
aF23.0146007538
aF28.619194030799999
aF51.168434143100001
aF23.083652496300001
aF28.1076984406
aF49.334533691399997
aF24.054601669299998
aF27.338815689099999
aF48.564994812000002
aF23.985851287799999
aF29.0860919952
aF48.8863449097
aF23.881471633899999
aF28.084594726599999
aF49.782779693599998
aF25.0478992462
aF27.8716983795
aF49.766532897899999
aF21.737600326500001
aF28.729604721099999
aF49.359291076700003
aF21.597068786600001
aF26.358697891199999
aF52.233531951899998
aF22.302600860599998
aF27.0696983337
aF53.248535156199999
aF22.503601074199999
aF26.135698318500001
aF55.396533966100002
aF24.244600296000002
aF26.222589492800001
aF54.515430450399997
aF23.758592605600001
aF27.3026981354
aF55.932533264200003
aF24.9036006927
aF27.034706115700001
aF56.389266967799998
aF25.856319427500001
aF28.259698867800001
aF54.803531646700002
aF25.164600372300001
aF28.291427612300001
aF54.219322204599997
aF24.244934082
aF29.205364227299999
aF55.330238342299999
aF25.292652130099999
aF28.033699035600002
aF53.877532959
aF26.343601226800001
aF28.597698211699999
aF52.602531433099998
aF26.300600051899998
aF29.175592422499999
aF52.319389343300003
aF25.420846939099999
aF28.435699462900001
aF51.694534301799997
aF27.353601455700002
aF28.7977581024
aF50.667930603000002
aF27.297912597700002
aF27.7286987305
aF52.123535156199999
aF28.473600387600001
aF27.645698547399999
aF51.240531921399999
aF29.538600921600001
aF28.0995521545
aF50.410736084
aF29.3741168976
aF27.2006988525
aF53.3785324097
aF28.5356006622
aF26.664716720600001
aF53.676445007300003
aF29.436752319299998
aF27.334699630700001
aF54.2725334167
aF27.478601455700002
aF26.894676208500002
aF55.267410278299998
aF27.5471420288
aF27.9236984253
aF56.983531951899998
aF23.987600326500001
aF28.914699554399999
aF56.777534484900002
aF23.293600082400001
aF32.287139315451086
aF43.244837261370463
aF31.106385159922191
aF40.454987388069945
aF33.992349947025943
aF29.524659633620139
aF41.347381708417345
aF33.812839294070905
aF29.132613602358823
aF40.668430138562059
aF34.918523052593777
aF29.870308311246845
aF36.8736991882
aF26.585533142100001
aF27.257600784299999
aF37.830898284900002
aF26.585533142100001
aF27.257600784299999
aF36.633708953899998
aF27.512159347499999
aF27.257600784299999
aF25.1806983948
aF44.045532226600002
aF27.987600326500001
aF25.872592925999999
aF44.040912628199997
aF27.2755088806
aF24.9407100677
aF44.972160339399998
aF27.987600326500001
aF42.120110087989389
aF47.431736760184066
aF32.77010980566947
aF42.812756072040251
aF47.059523542740862
aF33.364548815420044
aF42.130633924586817
aF48.362828244020506
aF33.061329069277676
aF26.873565406530425
aF44.773854521073751
aF26.14560164343645
aF27.795524837920446
aF45.038188152186322
aF26.365343494259125
aF26.512710571300001
aF45.595161437999998
aF25.800600051899998
aF25.792269377215089
aF40.612996245819716
aF34.841885801521698
aF25.854214858238795
aF39.734691975389133
aF35.255738903741744
aF25.082480634190844
aF40.440260768361313
aF34.17204891173909
aF31.656029911120914
aF34.634167507815214
aF31.730158563380893
aF32.385656314376085
aF34.957175858188229
aF32.285033867674017
aF31.529865913878616
aF35.382918215096495
aF31.112942560283749
aF31.445816911694806
aF41.356179518483522
aF30.890938580381881
aF31.443039076970692
aF40.421841759229636
aF30.606562312917454
aF30.555808036880283
aF41.634716039532698
aF30.537629041929428
aF24.766698837300002
aF36.123535156199999
aF30.3386001587
aF25.723897934
aF36.123535156199999
aF30.3386001587
aF24.526710510299999
aF37.050159454300001
aF30.3386001587
aF39.018837830444049
aF39.810479922779209
aF27.570152653603866
aF38.658440007162078
aF39.243063339697258
aF26.856407350453207
aF38.210455605894609
aF40.341725357468839
aF27.77486125250028
aF28.36687662826639
aF39.883843232197798
aF37.206855436229546
aF29.149441510964785
aF39.815000648656678
aF36.624198223201866
aF27.714114514600492
aF39.353063338354268
aF36.70575844504814
aF22.015699386600001
aF42.475532531699997
aF30.2866001129
aF22.9728984833
aF42.475532531699997
aF30.2866001129
aF21.775711059599999
aF43.4021606445
aF30.2866001129
aF26.1246986389
aF47.543533325200002
aF21.771600723300001
aF27.081899642900002
aF47.543533325200002
aF21.771600723300001
aF25.884710311900001
aF48.470161437999998
aF21.771600723300001
aF28.563289483429958
aF40.788886838098314
aF24.694138145047319
aF28.774940707718166
aF39.856781665865121
aF24.897413355055601
aF28.57988246613365
aF40.700608586732656
aF23.681546777331501
aF46.747966642300526
aF41.067369736819963
aF26.809605488491453
aF47.704898834200002
aF41.0045318604
aF26.803600311299999
aF46.523748102397228
aF40.810131113110678
aF27.726004293911998
aF41.00637061129715
aF37.820337010431935
aF35.571860186271905
aF41.692232790251794
aF37.246530065845185
aF35.158212335932149
aF40.998996444795949
aF38.560771585815907
aF34.932567443423501
aF46.1206970215
aF35.110534668
aF27.857601165799998
aF47.077899932900003
aF35.110534668
aF27.857601165799998
aF45.866686680775693
aF35.852886236739344
aF27.29393000860264
aF33.877696991000001
aF35.002532959
aF44.182601928700002
aF34.834899902300002
aF35.002532959
aF44.182601928700002
aF33.637710571299998
aF35.929161071800003
aF44.182601928700002
aF30.968812030799469
aF36.443593091278096
aF29.86152511488293
aF31.324216882975346
aF37.35286569148203
aF29.958614044176269
aF30.6935252909194
aF36.458493753826488
aF28.923675371910502
aF21.3166980743
aF38.152534484900002
aF30.048601150500001
aF22.273899078399999
aF38.152534484900002
aF30.048601150500001
aF21.076709747300001
aF39.079158782999997
aF30.048601150500001
aF24.140699386600001
aF36.152534484900002
aF27.6406002045
aF25.0978984833
aF36.152534484900002
aF27.6406002045
aF23.900711059599999
aF37.079158782999997
aF27.6406002045
aF45.142700195300002
aF30.487533569299998
aF33.905601501500001
aF46.099899292000003
aF30.487533569299998
aF33.905601501500001
aF44.902709960899998
aF31.414159774800002
aF33.905601501500001
aF32.443105378287143
aF38.643134264389047
aF30.380654979024278
aF33.012735283448336
aF37.885508183130632
aF30.685937175705959
aF32.962018195374526
aF39.363043999810721
aF30.842196669477662
aF48.9976997375
aF48.415534973100002
aF32.670600891100001
aF49.954898834200002
aF48.415534973100002
aF32.670600891100001
aF48.757709503199997
aF49.342159271200003
aF32.670600891100001
aF24.4306983948
aF41.922534942600002
aF31.226600647000001
aF24.131704330400002
aF41.585605621299997
aF32.079956054699998
aF24.1907100677
aF42.849159240699997
aF31.226600647000001
aF46.487697601299999
aF47.544532775900002
aF24.3156013489
aF47.444900512700002
aF47.544532775900002
aF24.3156013489
aF46.247711181600003
aF48.471160888699998
aF24.3156013489
aF41.500101725472163
aF36.519320639325841
aF40.208667264628055
aF41.65466975734995
aF35.802853078914865
aF39.531611463365678
aF42.369898525035701
aF36.527777914336873
aF40.637085062685912
aF25.253698349
aF45.157531738300001
aF40.611602783199999
aF26.210899352999999
aF45.157531738300001
aF40.611602783199999
aF25.013710022000001
aF46.084159851099997
aF40.611602783199999
aF46.701698303199997
aF30.792533874499998
aF25.2106018066
aF47.658897399899999
aF30.792533874499998
aF25.2106018066
aF46.461711883500001
aF31.719160080000002
aF25.2106018066
aF43.643003540774025
aF44.809426791770655
aF31.390539174935885
aF43.361829152776004
aF43.87309995588555
aF31.337670590702178
aF42.941071981650289
aF45.192076540504083
aF31.935115320553336
aF35.945097691993389
aF38.376998089774276
aF40.659569584388059
aF36.724954169744677
aF38.404284039204342
aF41.239686920591353
aF35.661587263396889
aF39.315774499717946
aF40.684253549413114
aF37.6287002563
aF37.977531433099998
aF44.627601623499999
aF38.585899353000002
aF37.977531433099998
aF44.627601623499999
aF37.388710021999998
aF38.904159545900001
aF44.627601623499999
aF31.4276981354
aF37.7745323181
aF43.233600616499999
aF32.384899139399998
aF37.7745323181
aF43.233600616499999
aF31.187709808299999
aF38.701160430900003
aF43.233600616499999
aF46.814697265600003
aF30.2585334778
aF29.2116012573
aF47.771900176999999
aF30.2585334778
aF29.2116012573
aF46.5747108459
aF31.185159683199998
aF29.2116012573
aF25.8726978302
aF38.910533905000001
aF40.562599182100001
aF26.829898834200002
aF38.910533905000001
aF40.562599182100001
aF25.632711410500001
aF39.837162017799997
aF40.562599182100001
aF38.609452992403973
aF45.275015200758112
aF41.538700852600577
aF39.13725096524746
aF44.917041026840963
aF42.283231164856474
aF37.761858284976142
aF45.460367692260355
aF41.984984161017401
aF32.319945342412858
aF43.632581574296957
aF33.062158992505296
aF33.172446202547498
aF44.058350702380686
aF33.315074660916991
aF31.707588940738066
aF44.343595455860715
aF33.413615111830936
aF38.355535312776517
aF34.494513757714387
aF32.456219849445311
aF39.256006563089407
aF34.922513792616144
aF32.424690610580853
aF37.836116755418303
aF35.255577456095097
aF32.793886962965018
aF47.166698455800002
aF30.396533966100002
aF31.752601623499999
aF48.123897552499997
aF30.396533966100002
aF31.752601623499999
aF46.9267120361
aF31.3231601715
aF31.752601623499999
aF22.881698608400001
aF42.468532562299998
aF27.555601119999999
aF23.838899612399999
aF42.468532562299998
aF27.555601119999999
aF22.641710281400002
aF43.395160675
aF27.555601119999999
aF27.010009645859267
aF41.903621593375959
aF28.564907515512576
aF27.851783570302519
aF42.07449372690408
aF29.062694816217249
aF26.517775079491514
aF42.717712784178978
aF28.793095132830349
aF46.414352172061086
aF44.13491491084158
aF31.517443185805885
aF47.014006447817707
aF44.893593476911171
aF31.424909232923849
aF45.541096474975475
aF44.557693480047718
aF31.498961788028659
aF34.364700317400001
aF32.569534301799997
aF43.097599029500003
aF35.321899414100002
aF32.569534301799997
aF43.097599029500003
aF34.124710082999997
aF33.496158599899999
aF43.097599029500003
aF48.321697235099997
aF46.2575340271
aF31.0376014709
aF49.2789001465
aF46.2575340271
aF31.0376014709
aF48.081710815400001
aF47.184162139900003
aF31.0376014709
aF29.5696983337
aF39.477531433099998
aF42.175601959200002
aF30.5268993378
aF39.477531433099998
aF42.175601959200002
aF29.329710006700001
aF40.404159545900001
aF42.175601959200002
aF36.473697662399999
aF40.3765335083
aF45.210601806600003
aF37.430900573700001
aF40.3765335083
aF45.210601806600003
aF36.233711242699997
aF41.303161621100003
aF45.210601806600003
aF41.04809240476056
aF40.071764846071751
aF37.191703279015449
aF41.133067925925204
aF39.108313692205591
aF37.032832269741775
aF40.983547598070977
aF40.385923679927672
aF36.262476150428391
aF37.039699554400002
aF32.448532104500003
aF44.075599670400003
aF37.996898651099997
aF32.448532104500003
aF44.075599670400003
aF36.7997093201
aF33.375160217299999
aF44.075599670400003
aF47.061117492187371
aF35.870273796863195
aF31.353732501552827
aF47.451900482200003
aF35.646533966100002
aF30.488601684599999
aF47.165178615666228
aF36.846261801577938
aF31.335991147276232
aF28.504258740218045
aF38.468488909420387
aF39.525478641243076
aF28.901062158783262
aF37.656938366745564
aF39.168368737961124
aF28.432016492163136
aF39.017494369197124
aF38.717859839395743
aF22.830698013300001
aF45.5015335083
aF23.425600051899998
aF23.787899017299999
aF45.5015335083
aF23.425600051899998
aF22.590711593599998
aF46.428161621100003
aF23.425600051899998
aF41.339289971823533
aF42.070229010450348
aF38.959345056467825
aF41.243231222957675
aF41.277950964160404
aF38.371626246939741
aF42.317328285331293
aF42.056808830780078
aF39.073492480219905
aF26.281701410164526
aF40.880208548797931
aF26.174959893247578
aF27.048324423340507
aF41.05126996311639
aF25.576786180128138
aF26.627225766676091
aF41.304624510547754
aF26.996828297913648
aF39.797698974600003
aF39.324531555199997
aF44.772602081300001
aF40.754898071299998
aF39.324531555199997
aF44.772602081300001
aF39.5577125549
aF40.251159668
aF44.772602081300001
aF31.386697769200001
aF43.196533203100003
aF18.680601119999999
aF32.343898773200003
aF43.196533203100003
aF18.680601119999999
aF31.146711349499999
aF44.123161315899999
aF18.680601119999999
aF25.132698059100001
aF38.458534240699997
aF27.002601623499999
aF25.674030303999999
aF38.354774475100001
aF26.2047424316
aF24.892711639400002
aF39.385158538799999
aF27.002601623499999
aF48.652698516800001
aF48.090534210199998
aF25.922601699800001
aF49.609897613500003
aF48.090534210199998
aF25.922601699800001
aF48.4127120972
aF49.0171585083
aF25.922601699800001
aF25.597698211699999
aF45.488533019999998
aF23.416601181000001
aF26.554899215700001
aF45.488533019999998
aF23.416601181000001
aF25.357709884599998
aF46.415161132800002
aF23.416601181000001
aF31.407699585
aF38.443534851099997
aF46.042602539100002
aF32.364898681600003
aF38.443534851099997
aF46.042602539100002
aF31.167711257899999
aF39.370159149199999
aF46.042602539100002
aF47.825708838782923
aF41.395505180814425
aF34.210183826216017
aF48.773899078399999
aF41.275531768800001
aF34.109600067099997
aF47.802040335628242
aF42.259573253091077
aF34.709339698683038
aF38.969963323040069
aF43.297255144201834
aF38.902858726549212
aF39.863853404076885
aF42.871847519773006
aF38.88900566169017
aF39.140527613248707
aF44.038851221104906
aF39.506238243475927
aF49.553699493400003
aF39.400531768800001
aF34.665599823000001
aF50.510898590099998
aF39.400531768800001
aF34.665599823000001
aF49.313709258999999
aF40.327159881599997
aF34.665599823000001
aF24.8236980438
aF37.250534057599999
aF22.873600006099998
aF25.7808990479
aF37.250534057599999
aF22.873600006099998
aF24.583711624100001
aF38.177162170400003
aF22.873600006099998
aF39.132698059100001
aF31.0255336761
aF43.085601806600003
aF40.089897155800003
aF31.0255336761
aF43.085601806600003
aF38.892711639399998
aF31.9521598816
aF43.085601806600003
aF42.752678677978906
aF36.252469508263538
aF34.239548965073688
aF42.685264689681183
aF36.904253878133325
aF33.456512614693565
aF42.043803322539411
aF35.643097026303309
aF33.892962628181927
aF23.4976978302
aF45.122531890899999
aF38.593601226799997
aF24.454898834200002
aF45.122531890899999
aF38.593601226799997
aF23.257711410500001
aF46.049160003700003
aF38.593601226799997
aF44.609801906344615
aF34.975255969710332
aF35.847865783338925
aF44.16769681091241
aF34.53064916325112
aF36.635380570580146
aF43.807167305929127
aF35.36148989778026
aF35.431045541997442
aF34.140998600626979
aF37.651600999154965
aF42.754983477259266
aF34.891418457
aF37.035087585399999
aF43.0374107361
aF34.591069109511025
aF38.008492540550563
aF41.950149350779967
aF47.644699096700002
aF33.438533782999997
aF26.2646007538
aF48.601898193399997
aF33.438533782999997
aF26.2646007538
aF47.404708862299998
aF34.3651618958
aF26.2646007538
aF40.066699981699998
aF35.5035324097
aF43.868602752699999
aF41.023899078399999
aF35.5035324097
aF43.868602752699999
aF39.826709747300001
aF36.430160522500003
aF43.868602752699999
aF34.341697692899999
aF40.8825340271
aF19.241600036600001
aF35.2989006042
aF40.8825340271
aF19.241600036600001
aF34.101711273200003
aF41.809162139900003
aF19.241600036600001
aF23.581699371300001
aF40.296531677200001
aF26.045600891100001
aF24.538898467999999
aF40.296531677200001
aF26.045600891100001
aF23.341711044299998
aF41.223159789999997
aF26.045600891100001
aF44.818420506856512
aF40.552738126447039
aF41.622540981045567
aF45.383899688699998
aF41.048534393300002
aF41.0146026611
aF44.790738063498409
aF41.178833264555145
aF42.383667979159803
aF28.386697769200001
aF41.885532379200001
aF42.948600769000002
aF29.343898773199999
aF41.885532379200001
aF42.948600769000002
aF28.146711349499999
aF42.812160491900002
aF42.948600769000002
aF47.237697601299999
aF38.534534454300001
aF25.971601486200001
aF48.194900512700002
aF38.534534454300001
aF25.971601486200001
aF46.997711181600003
aF39.461158752400003
aF25.971601486200001
aF37.068032878358245
aF40.846982840018654
aF38.349324686368753
aF37.674975623502334
aF41.516182832826757
aF38.012131121839765
aF36.347090813771942
aF40.869146569288169
aF37.693669957079393
aF49.411697387700002
aF46.980533599899999
aF28.428600311299999
aF50.368900299099998
aF46.980533599899999
aF28.428600311299999
aF49.171710967999999
aF47.907161712600001
aF28.428600311299999
aF22.634698867800001
aF37.229534149199999
aF38.685600280800003
aF23.591897964499999
aF37.229534149199999
aF38.685600280800003
aF22.394710540799998
aF38.156158447300001
aF38.685600280800003
aF27.404699325599999
aF34.941532135000003
aF42.2625999451
aF28.361898422199999
aF34.941532135000003
aF42.2625999451
aF27.164710998499999
aF35.868160247799999
aF42.2625999451
aF33.656459135292103
aF35.2744037636893
aF33.635433474334718
aF34.14362936770938
aF34.866121696208843
aF34.392226155440525
aF33.080982742761627
aF35.895253596584581
aF34.146925693802217
aF26.949699401899998
aF38.101531982399997
aF25.0356006622
aF26.995695114099998
aF37.8441696167
aF24.117841720600001
aF26.709711074800001
aF39.028160095200001
aF25.0356006622
aF49.217697143599999
aF42.622531890899999
aF23.200601577800001
aF50.1749000549
aF42.622531890899999
aF23.200601577800001
aF48.977710723900003
aF43.549160003700003
aF23.200601577800001
aF45.388698577900001
aF32.3985328674
aF35.846599578899998
aF46.345897674600003
aF32.3985328674
aF35.846599578899998
aF45.148712158199999
aF33.325160980200003
aF35.846599578899998
aF24.518699646000002
aF43.071533203100003
aF42.131599426299999
aF25.4758987427
aF43.071533203100003
aF42.131599426299999
aF24.278711318999999
aF43.998161315899999
aF42.131599426299999
aF47.425697326700003
aF33.321533203100003
aF31.978601455700002
aF48.382900237999998
aF33.321533203100003
aF31.978601455700002
aF47.185710907000001
aF34.248161315899999
aF31.978601455700002
aF48.770698547400002
aF32.069534301799997
aF28.7816009521
aF49.727897644000002
aF32.069534301799997
aF28.7816009521
aF48.530712127699999
aF32.996158599899999
aF28.7816009521
aF48.459697723399998
aF37.963531494100003
aF30.049600601200002
aF49.4168968201
aF37.963531494100003
aF30.049600601200002
aF48.219711303700002
aF38.890159606899999
aF30.049600601200002
aF47.136699676500001
aF38.765533447300001
aF40.419601440400001
aF48.093898773200003
aF38.765533447300001
aF40.419601440400001
aF46.896709442099997
aF39.692161560099997
aF40.419601440400001
aF44.656856536900001
aF35.717636108400001
aF42.301284789999997
aF44.6741294861
aF36.168502807599999
aF43.145469665500002
aF44.408412933299999
aF34.818202972400002
aF42.514629364000001
aF43.054813385000003
aF33.355678558299999
aF43.261207580600001
aF42.271991729699998
aF33.830226898200003
aF43.540882110600002
aF42.761104583700003
aF32.451160430900003
aF43.1525268555
asS'shape'
p7
(lp8
I2173
aI3
asS'storage'
p9
S'RowMajor'
p10
sb.