cpCore.Serialization
RawObjectConstructor
p1
(cpCore.Coordinates3
Coordinates3
p2
tRp3
(dp4
S'items'
p5
(lp6
F36.161915128062262
aF40.728626754957361
aF33.22074783210757
aF35.469855976569164
aF39.20344978757673
aF30.637787620801664
aF34.884372933570411
aF38.311598316298522
aF33.508160920678371
aF36.897820684879946
aF37.02933805775185
aF31.598317584653262
aF37.481731049035403
aF38.658265947629765
aF34.122660752811235
aF39.124362806288097
aF36.844804724473988
aF33.660950463724319
aF34.406986871806126
aF41.120303159115942
aF31.728029091254495
aF34.254483950152803
aF36.374072403538378
aF32.476033281261465
aF36.202983731575976
aF36.64994091279366
aF34.388345105982303
aF39.823928852140561
aF38.459715126858285
aF33.46844762359256
aF36.456690419945453
aF40.282245693840331
aF32.237483815649526
aF35.298775138723101
aF39.40048155896006
aF31.698677432748454
aF35.224265194782177
aF38.074660755950951
aF32.496207743252057
aF36.616450142409668
aF37.387481314564511
aF32.58891280918759
aF37.70567696389741
aF38.373905417661256
aF33.090576557638968
aF39.113613055021048
aF37.750503962250583
aF33.048338924945341
aF36.614616002602205
aF41.429610448730244
aF31.366320712969781
aF34.10094140742477
aF40.153608662761044
aF31.878301080604711
aF34.277264563964998
aF37.179621910314204
aF31.881778036904191
aF36.54733723644906
aF36.273281004887252
aF33.503512269658238
aF37.731079993259677
aF39.583779594000077
aF32.299343437367931
aF39.518161253303376
aF37.435742549428284
aF31.697819084562756
aF40.912831106556176
aF36.726455520771395
aF31.598674123763008
aF42.039951269354503
aF37.465582197171173
aF32.189867114423095
aF41.319534974587391
aF36.227291378267111
aF30.284478341416857
aF40.81373393725989
aF35.486181053989156
aF32.37206321789089
aF35.498514695908952
aF43.508106902317671
aF31.816401252469632
aF36.411170590210588
aF44.103074987262495
aF30.774288745996994
aF34.285946642512549
aF42.68569367394548
aF31.390704758141126
aF35.949417106075103
aF43.434357860331545
aF33.252308623532194
aF36.683700561499997
aF58.840534210199998
aF32.008602142299999
aF37.455970764200003
aF58.960182189900003
aF31.368776321399999
aF35.775699615500002
aF57.710533142099997
aF31.797601699800001
aF35.026142120400003
aF57.670124053999999
aF32.5879364014
aF35.053699493400003
aF57.796531677200001
aF30.437601089499999
aF35.801002502400003
aF57.803203582800002
aF29.6441345215
aF34.114700317400001
aF56.609531402599998
aF30.241600036600001
aF33.366779327400003
aF56.602458953899998
aF31.034484863300001
aF33.618000030499999
aF56.694244384800001
aF29.2750530243
aF34.687709808299999
aF55.682907104500003
aF30.275079727200001
aF34.270698547400002
aF59.081531524699997
aF30.329601287799999
aF34.948947906500003
aF59.929771423299997
aF30.422185897799999
aF33.769191741900002
aF59.121852874799998
aF29.3626651764
aF33.527427673299997
aF59.1227226257
aF31.125814437900001
aF36.561698913599997
aF56.3935317993
aF31.933601379399999
aF37.6406974792
aF56.300533294700003
aF31.3426017761
aF36.0037002563
aF55.472534179699998
aF32.713600158699997
aF35.075344085700003
aF55.652030944800003
aF33.068618774400001
aF36.688697814900003
aF54.248535156199999
aF33.144599914600001
aF37.717990875200002
aF54.260494232200003
aF32.786117553700002
aF36.703697204599997
aF54.138534545900001
aF34.670600891100001
aF35.685138702400003
aF53.921974182100001
aF34.992687225300003
aF37.321140289299997
aF53.2492790222
aF34.797451019299999
aF37.273696899400001
aF55.279533386200001
aF35.5156021118
aF37.029186248800002
aF55.046875
aF36.552028655999997
aF38.786697387700002
aF55.5065345764
aF35.385601043699999
aF39.031932830800002
aF55.739715576199998
aF34.349460601799997
aF39.086315155000001
aF56.336853027300002
aF36.025054931600003
aF39.317440032999997
aF54.604404449500002
aF35.689868926999999
aF36.832698821999998
aF56.657531738300001
aF35.203601837199997
aF35.751449585000003
aF56.7290000916
aF35.321475982700001
aF37.318794250499998
aF57.357727050800001
aF35.882968902599998
aF37.102619171100002
aF56.902122497599997
aF34.1762657166
aF35.977792788048511
aF53.067591510486025
aF32.458632598086815
aF34.863015071294711
aF52.689774056401802
aF32.82860095309492
aF36.594707962942707
aF52.518844873355761
aF31.413509653146839
aF37.530110144457424
aF52.841744156151201
aF31.186066224759472
aF35.984704038826344
aF51.514561378758117
aF30.53988259102255
aF34.906920616951481
aF51.680452617760757
aF30.495107635462979
aF36.530467075830529
aF51.643094676867804
aF29.113807738534966
aF37.619186054961418
aF51.671616227276999
aF29.149876619407703
aF36.253256838932103
aF50.746434090026156
aF28.564394161292981
aF36.033727170633867
aF52.835415097518322
aF28.326670322601704
aF36.591697692899999
aF54.094532012899997
aF28.5206012726
aF37.3530235291
aF54.213439941399997
aF29.291540145900001
aF36.197700500499998
aF55.196533203100003
aF27.748600006099998
aF36.650829315199999
aF56.175441741900002
aF27.905160903900001
aF35.213699340799998
aF55.030532836900001
aF26.7706012726
aF34.883121490500002
aF55.875057220499997
aF26.165954589799998
aF34.658699035600002
aF53.780532836900001
aF26.573600768999999
aF33.903488159200002
aF53.650878906199999
aF25.798393249499998
aF35.050697326700003
aF52.699531555199997
aF27.346601486200001
aF34.605082463031735
aF51.731038038613818
aF27.16831611999244
aF36.223813756783748
aF50.098298977093542
aF31.053263058815663
aF37.371552490193416
aF49.644371582839554
aF31.127465290477833
aF35.091012552554893
aF49.376483267861659
aF31.327572895583266
aF34.191623525186678
aF49.823445406957973
aF31.170831553062968
aF35.136700590037471
aF47.961087183287297
aF31.045889670616219
aF35.971957440107083
aF47.50530596175858
aF31.67257302456386
aF33.779586494304446
aF47.353101231654556
aF31.455159208734756
aF33.559502273314195
aF47.651379641327317
aF32.529227236991723
aF32.962134141436593
aF47.759896489166152
aF30.794713655191391
aF33.772468856142076
aF45.871685880705471
aF31.391670654703411
aF34.556311124306788
aF45.169608419459585
aF32.214216343913947
aF32.966473021206049
aF45.212316929003244
aF30.621258099338331
aF35.421474956496333
aF47.608108048261684
aF29.574369607138127
aF35.124292670727442
aF48.468330155024724
aF28.675212543401411
aF36.000168919661142
aF46.383967311922504
aF29.22677685640884
aF36.202492018620198
aF45.692239298180858
aF29.958337713356787
aF36.200273098963443
aF45.962486548865805
aF27.836440868495067
aF36.102978437987275
aF46.833905398653023
aF27.189922613492264
aF37.63226636706532
aF45.412113497227473
aF27.659245081281995
aF38.309762409764552
aF46.055504950530576
aF28.214606811000934
aF37.708385684777141
aF44.420540022016489
aF28.110438601734291
aF38.129466263630896
aF45.348833094210441
aF26.197015580956784
aF38.00497346566587
aF46.321873015432431
aF25.726462045155255
aF39.612683025865394
aF45.005673706421447
aF26.17625082655946
aF39.740215305778371
aF43.99320502941999
aF26.554220423927575
aF40.001861134657766
aF45.065981577667166
aF25.16069654427357
aF40.173528066495614
aF45.70359506504159
aF26.795613340332153
aF37.43150031554547
aF44.293749234631605
aF25.334821452452935
aF36.419316571063227
aF44.602391155489414
aF25.096840579090191
aF37.967486781441075
aF44.16128463473602
aF24.396562511831711
aF37.406007288374006
aF43.336797732999862
aF25.86174166708518
aF35.134600059544425
aF44.95058141275257
aF27.392634512616727
aF34.393043328710135
aF45.223601335483558
aF26.437504728338574
aF35.073855005158876
aF43.791175965562594
aF28.126950788658654
aF35.710019577310234
aF43.663337926231819
aF28.90988075320675
aF34.365014715547218
aF42.651197198939329
aF27.61860098259476
aF34.629371014286569
aF42.48632959487427
aF26.521309150970751
aF34.687147160418348
aF41.354767056222201
aF28.387399851316552
aF34.704310460848745
aF41.554050227553105
aF29.506745096703174
aF33.907555877576023
aF40.574691678759514
aF28.162010629309854
aF36.012240201361003
aF40.78150852687083
aF27.977135425827687
aF36.17015382010409
aF40.193600125891869
aF26.818430825313623
aF37.045043879650009
aF40.759655369790167
aF28.772281017064063
aF37.017720902717663
aF41.179841183088499
aF30.469577598656603
aF32.86049626888834
aF42.914539729040925
aF27.74073050699629
aF32.315981095131761
aF43.01738499787524
aF28.883162890259289
aF32.115310046577214
aF43.083179056952623
aF26.575321309069466
aF32.56425417650793
aF43.030738514977642
aF25.652498932006107
aF30.711403330578161
aF43.487447891574362
aF26.599377802085346
aF30.228669141588416
aF43.107039635006636
aF25.697638642731789
aF30.209136530540583
aF43.033942548676897
aF27.455300962538118
aF30.471756708514455
aF45.007468574639532
aF26.65386424863301
aF29.318852608220347
aF45.427033787387927
aF26.620712884162717
aF31.511365263153809
aF45.848574778946336
aF26.676299121185188
aF32.445307047238416
aF45.456122693579722
aF26.728255807013316
aF31.373261265186716
aF47.322588807301379
aF26.635074955239944
aF30.324101537859782
aF47.58713473803347
aF26.5066375065133
aF31.828721958360568
aF47.950584921448588
aF27.965853609632575
aF32.796189147587661
aF47.535625361441767
aF28.238588927436624
aF31.946119475675989
aF49.480401725022254
aF27.916820646677124
aF31.002064239505021
aF49.925514236086116
aF27.608273323205925
aF32.222985008668097
aF49.856466947586135
aF28.901778871957827
aF32.733005770631223
aF49.776525533356718
aF27.223424022694715
aF30.816244728031936
aF47.593371055765594
aF29.058102622122092
aF30.91591601215843
aF46.540156746457228
aF29.321010241878046
aF30.993751315059985
aF48.194268736673756
aF29.944017983925018
aF29.80255849147601
aF47.784982138897206
aF28.715507127377769
aF32.080280674900898
aF47.934478460379125
aF25.429433854116638
aF31.47298515470499
aF48.723646779649549
aF24.713666699253292
aF33.316192953086315
aF47.528878428070655
aF25.142997255208769
aF33.760444176521908
aF46.873932255327077
aF25.776946809699414
aF34.06706882795109
aF47.96287252373412
aF23.953781921468345
aF33.73426997568906
aF48.959632936910999
aF23.664896312470702
aF35.566649232548826
aF48.057760182494874
aF24.319423535407783
aF35.872225211808129
aF47.131352842867457
aF24.806680231845544
aF36.422775445842831
aF48.241310714694286
aF23.061502439168123
aF36.066555023200003
aF49.122055053700002
aF22.533914566
aF37.474308126936464
aF48.356842403438669
aF23.317757893202092
aF36.341783683866112
aF47.377401211096519
aF22.403463026263648
aF35.777179248279246
aF49.241872247728004
aF25.294422751513356
aF35.511382216355749
aF50.174267377383863
aF24.794318048894525
aF35.110644748756542
aF49.128240287109236
aF26.147763110346634
aF37.200018787221872
aF49.377378082623927
aF25.848082786278837
aF37.900150080726149
aF49.647532009899784
aF25.058913400787912
aF37.212515312874274
aF50.163122049411967
aF26.599140932347446
aF37.512756331581315
aF48.448269574525824
aF26.318173407543298
aF33.786629859723334
aF47.043603760617557
aF22.751956468891549
aF33.7446975708
aF47.479534149199999
aF21.602600097700002
aF33.571837198507168
aF45.757524160803165
aF23.002593373960007
aF33.594427582778316
aF45.433713803083769
aF23.960292841898919
aF33.252914823336276
aF44.766334904846801
aF21.969690416040486
aF32.5505981445
aF45.197769164999997
aF21.2529067993
aF34.530106371618146
aF44.389006183170125
aF21.195104083021285
aF34.964864796000519
aF45.301688213080901
aF20.791593535530168
aF35.581143617948428
aF43.690462612092247
aF22.055297131697213
aF35.140784839866996
aF42.846435391293177
aF22.577628421471978
aF36.404399647906189
aF43.337271715938229
aF21.435446380745017
aF35.969290887855792
aF44.392127169018117
aF22.789024551165863
aF34.2356987
aF43.554534912100003
aF20.107601165799998
aF35.058479309100001
aF43.321392059300003
aF19.671394348100002
aF32.570042556581903
aF43.557180067604037
aF22.610030185303614
aF32.513094837615739
aF43.437000725076253
aF23.836553566912684
aF32.053523818218693
aF42.656915304581936
aF21.789946653067119
aF32.1544151306
aF42.818538665799998
aF20.796367645299998
aF31.211349029913556
aF41.51821406204558
aF22.145985182338841
aF30.468098314527367
aF41.870118704152169
aF22.858476404916789
aF30.493698120099999
aF41.100532531699997
aF20.856601715099998
aF30.219261169399999
aF42.003005981400001
aF20.310407638499999
aF31.209409713700001
aF40.524803161599998
aF20.269752502399999
aF29.261697769200001
aF40.2685317993
aF21.102600097700002
aF28.779699325599999
aF40.208534240699997
aF22.249601364099998
aF28.741699218800001
aF39.657531738300001
aF20.1406002045
aF31.955275892146283
aF40.339843149855078
aF22.812106451078908
aF31.399918750541556
aF39.274685573615038
aF23.054298959087063
aF33.222199394075979
aF40.503053135180494
aF23.192180003997091
aF33.659487374741921
aF41.398209687944274
aF23.029853800924975
aF34.066807727257583
aF39.417240336977407
aF23.726132460654782
aF34.028665070740303
aF38.598304394572992
aF23.008035388345029
aF35.528371641736527
aF39.878164942166173
aF23.804040657721693
aF36.11689762579978
aF39.132845425127705
aF24.334604011147906
aF36.140949023460557
aF40.071222107238327
aF22.415208099172677
aF35.517979715386943
aF40.723184036518099
aF21.806805933288057
aF37.131519316204795
aF40.508477632244244
aF22.513840384063087
aF36.230846522510838
aF39.111971776097157
aF21.914416309134154
aF35.620791773412783
aF41.113681716902825
aF24.470635565018682
aF35.902021767461846
aF40.876963170084551
aF25.388132558920262
aF33.58112739256611
aF38.815784636910294
aF25.061394552055788
aF34.028828511944091
aF37.734050999712302
aF25.445071457622404
aF32.574378741525031
aF39.413797805147738
aF25.715746707954061
aF32.196181119080379
aF40.249060821077371
aF25.298162115945168
aF31.810887417542585
aF38.770522824405397
aF26.792883524166989
aF32.514351243452552
aF38.402182393594948
aF27.540143393639223
aF30.910323635595859
aF39.812243054062726
aF27.466992393185397
aF30.258365099026413
aF40.284040853767593
aF26.732714751948045
aF30.294190632096822
aF39.32761362195928
aF28.225477274183877
aF31.517727900430131
aF40.568802138798986
aF27.955424363797189
aF30.979830823135902
aF37.556508336105146
aF26.318708722512337
aF30.830450106191943
aF36.602583419485683
aF27.088002764839406
aF30.502261093331615
aF37.546081448923573
aF25.065778608326596
aF30.689251251180934
aF38.338915779088623
aF24.455994291376921
aF29.89257863243553
aF36.369196177053155
aF24.428604002977064
aF29.070514458969679
aF36.016481189586777
aF25.054474137134388
aF29.311698913600001
aF36.750534057599999
aF23.0356006622
aF28.527456283599999
aF37.493278503399999
aF23.181858062700002
aF30.1122817993
aF37.181667327900001
aF22.436733245799999
aF28.741699218800001
aF35.548534393300002
aF22.257600784299999
aF28.600219726599999
aF35.842388153100003
aF21.217536926299999
aF29.486425399800002
aF34.754489898700001
aF22.3121852875
aF27.433698654200001
aF35.050533294700003
aF22.821599960299999
aF26.844697952299999
aF35.7415351868
aF23.704601287799999
aF26.959699630700001
aF33.981533050499998
aF22.385601043699999
aF30.937837967246278
aF35.241336712784843
aF24.341207554486608
aF30.648757496687985
aF34.094595390213549
aF24.679052311252384
aF32.184384340318672
aF35.549186909906936
aF23.967453969375498
aF32.383270195714893
aF36.503553934125996
aF23.699444560203574
aF33.261485109027731
aF34.55385193523415
aF23.915436972616398
aF32.8992080688
aF33.683700561499997
aF23.373216629000002
aF34.470667554215041
aF35.118256104118814
aF23.16303018545905
aF34.811098646945943
aF36.015833046512689
aF23.676535378608108
aF35.278987776374315
aF34.388181094882583
aF23.225942099311155
aF34.282142639200003
aF35.446514129599997
aF21.690687179600001
aF35.118968963599997
aF36.411243438699998
aF21.111139297499999
aF35.789188619061918
aF36.96189507998124
aF21.741320324412957
aF35.085697174099998
aF36.627532959
aF19.723600387600001
aF35.750747680700002
aF37.352073669399999
aF19.2536506653
aF34.159698486300002
aF35.945533752400003
aF18.9616012573
aF34.121700286900001
aF36.230533599899999
aF17.607601165799998
aF34.765769958500002
aF36.892353057900003
aF17.345363616899999
aF33.292697906500003
aF35.0185317993
aF19.508600234999999
aF32.562610626199998
aF34.496906280499999
aF18.889751434299999
aF33.362697601299999
aF34.7555351257
aF20.872600555399998
aF32.688758850100001
aF34.026401519799997
aF21.322343826299999
aF33.66879238841009
aF34.025087915632746
aF25.297038492797071
aF33.882130945143174
aF32.818690156493197
aF25.435921222092901
aF33.708887381146617
aF34.868888495606058
aF26.336704719215319
aF33.586317482869497
aF35.861804144976887
aF26.163671793298676
aF33.913068066384341
aF34.395140640735093
aF27.715276354110127
aF34.853716213684613
aF33.846424648839744
aF27.768110300097593
aF33.989853705902974
aF35.563434238505756
aF28.70268186153643
aF33.220318955751935
aF36.29389671101233
aF28.460292606164828
aF33.792137964839441
aF35.188582221994906
aF29.707633045091587
aF35.324432623417195
aF36.251636617151178
aF28.751873910163948
aF36.530374800232657
aF35.674891034534433
aF29.159850394285158
aF37.43706682129212
aF36.674609435366889
aF29.138716321219089
aF38.484109111055709
aF36.58357509612221
aF29.40983057835351
aF36.849787580585073
aF37.822397615997438
aF28.767353226936805
aF37.290919882745833
aF38.74390320196737
aF28.712351435043605
aF35.527843813474952
aF37.569705433964621
aF28.499148766173267
aF34.791379678463272
aF38.289975573055216
aF28.180069375653201
aF32.811335323462927
aF33.421266100877041
aF28.141661069181811
aF33.128706561939239
aF32.35471098629526
aF28.665133589474191
aF31.541126135359562
aF33.726138730230055
aF27.849486322489707
aF31.344679475027412
aF34.61913343528925
aF27.409818381102738
aF30.419635754412557
aF32.816332465378174
aF28.102310039097326
aF30.382074559819586
aF32.590592584109913
aF29.168181684471701
aF29.098013975922179
aF33.485208146360002
aF27.687784549272106
aF28.844940081579953
aF34.250370377370494
aF28.420497689826739
aF29.235974929590249
aF33.999127725991869
aF26.738862561234523
aF27.9266986847
aF32.5225334167
aF27.547601699800001
aF27.5566978455
aF31.748533248899999
aF28.630599975599999
aF28.120914459200002
aF31.789791107199999
aF29.562297821000001
aF26.455698013300001
aF30.913534164400001
aF28.523601532000001
aF26.133378982499998
aF30.345478057899999
aF29.3962535858
aF25.766698837300002
aF30.795534133899999
aF27.326601028399999
aF24.935688018800001
aF30.098228454600001
aF27.220357894900001
aF26.147699356099999
aF31.5765323639
aF26.2636013031
aF25.583114624
aF31.4965610504
aF25.334650039700001
aF27.217699050899999
aF32.448532104500003
aF26.349601745600001
aF27.4919929504
aF33.0610389709
aF25.490705490100002
aF30.582698822000001
aF31.487533569299998
aF27.358600616499999
aF30.503698349
aF30.410533905000001
aF27.9566001892
aF30.799697876
aF31.536533355700001
aF26.041601181000001
aF30.813447952299999
aF32.4119911194
aF25.538129806499999
aF30.916698455799999
aF30.2765331268
aF25.2656002045
aF30.019477844200001
aF29.6764335632
aF25.417169570900001
aF31.074699401899998
aF30.549533843999999
aF23.7706012726
aF31.944984435999999
aF31.191459655799999
aF23.634099960299999
aF31.244289398199999
aF29.596857070900001
aF23.2688579559
aF29.841699600199998
aF31.228532791100001
aF23.171600341800001
aF28.982160568200001
aF30.5812263489
aF23.345638275100001
aF29.693206787099999
aF32.175956726099997
aF23.689714431799999
aF29.989698409999999
aF31.485532760600002
aF21.674600601200002
aF30.901222228999998
aF32.050506591800001
aF21.479593276999999
aF30.026262283299999
aF30.539888382000001
aF21.133750915499999
aF28.840698242199998
aF32.262535095200001
aF21.187601089499999
aF28.111680984500001
aF32.545021057100001
aF21.827001571699999
aF28.7306995392
aF32.608531951899998
aF19.9036006927
aF29.639698028600002
aF32.233531951899998
aF19.039600372300001
aF30.426704406700001
aF31.6803016663
aF19.347263336200001
aF29.549833297700001
aF32.499168396000002
aF18.069311142
aF27.6786994934
aF33.335533142099997
aF19.564599990800001
aF27.004924774199999
aF33.6020545959
aF20.268232345600001
aF27.554176330600001
aF33.620685577400003
aF18.603725433299999
aF32.054698944099997
aF29.426532745399999
aF25.805601119999999
aF31.935699462900001
aF28.195533752399999
aF25.921600341800001
aF33.166698455800002
aF30.0595340729
aF26.125600814799999
aF33.260135650599999
aF31.057117462200001
aF25.998344421399999
aF34.334697723399998
aF29.305532455400002
aF26.601600647000001
aF34.484790801999999
aF28.455217361500001
aF25.936367034900002
aF35.585697174099998
aF30.168533325199999
aF26.576601028399999
aF35.458236494500348
aF31.028333632019667
aF27.236087700783052
aF36.441440582299997
aF29.578399658199999
aF26.904546737699999
aF35.759857177699999
aF30.527536392199998
aF25.562261581400001
aF34.0867004395
aF28.745532989499999
aF27.999601364099998
aF34.444698333700003
aF27.5735340118
aF28.273601532000001
aF33.466697692899999
aF29.511533737200001
aF28.9066009521
aF33.214607238799999
aF30.472965240499999
aF28.695802688600001
aF33.174697876000003
aF28.960533142100001
aF30.218601226800001
aF34.0719413757
aF28.484922409100001
aF30.614639282199999
aF32.704166412399999
aF30.0481414795
aF31.194316864000001
aF31.993592560443737
aF30.713160537816442
aF30.700055964257366
aF32.196025848399998
aF29.583772659299999
aF32.044624328600001
aF33.814844878300562
aF30.831392335813558
aF31.792202743987964
aF33.960666066098646
aF32.172649399500649
aF31.739910579074614
aF33.274691073950031
aF32.846504503154542
aF31.240760375352739
aF35.089145028720417
aF32.543899866314746
aF32.439189957511076
aF35.347727465598219
aF33.512867440936517
aF32.605378188655003
aF35.739236549926872
aF31.441091277556371
aF32.948227096579053
aF36.919179914500909
aF31.295566228068527
aF33.681883720698956
aF37.508153592651347
aF32.158249531245382
aF33.952409809380015
aF37.308608712802183
aF30.005510991557237
aF34.060037084822767
aF38.209045410199998
aF29.8392982483
aF34.6369743347
aF36.504699707
aF28.912532806400002
aF33.708599090600003
aF36.812812805199997
aF27.916904449499999
aF34.027797698999997
aF35.3546981812
aF29.0255336761
aF32.987602233899999
aF34.7857589722
aF28.1260585785
aF32.7523269653
aF34.933707802306778
aF30.318231782586079
aF32.570922841734287
aF32.153697967500001
aF27.849533081099999
aF30.150600433299999
aF32.315700530999997
aF26.869533538799999
aF30.8886013031
aF31.166698455799999
aF28.0015335083
aF29.2876014709
aF31.037124633800001
aF28.849397659299999
aF28.754276275599999
aF30.156698226900001
aF26.927534103399999
aF29.1546001434
aF29.724182128900001
aF26.6821727753
aF30.124563217199999
aF29.044698715199999
aF27.417533874499998
aF28.235601425199999
aF28.635774612399999
aF28.3313446045
aF28.666681289700001
aF29.489343643200002
aF27.641197204600001
aF27.265876769999998
aF27.9286994934
aF26.396533966100002
aF28.058601379399999
aF28.360542297399999
aF25.4506263733
aF27.731685638399998
aF27.422641754200001
aF26.2536029816
aF29.013366699199999
aF26.9286994934
aF26.8805332184
aF27.023601532000001
aF26.6716098785
aF27.911663055399998
aF27.266042709400001
aF27.416065216100002
aF26.847625732400001
aF26.049182891800001
aF25.661699294999998
aF26.037532806400002
aF26.985601425199999
aF25.166940689099999
aF26.260574340800002
aF26.040313720699999
aF25.980360031099998
aF24.995168685900001
aF26.991226196300001
aF24.720699310299999
aF26.270532608
aF28.100601196300001
aF24.424964904799999
aF27.236251831099999
aF28.0953063965
aF23.9150867462
aF25.671110153200001
aF27.992061615000001
aF25.178823471099999
aF26.063505172700001
aF28.976591110200001
aF30.8056983948
aF25.655532836900001
aF28.6566009521
aF30.537698745699998
aF24.5605335236
aF29.147600174000001
aF33.913700103799997
aF24.707532882700001
aF29.0136013031
aF33.9560089111
aF25.703441619900001
aF28.8508892059
aF34.730697631799998
aF24.1445331573
aF30.091600418100001
aF35.453441619899998
aF23.4248771667
aF29.707109451299999
aF35.4946975708
aF25.3075332642
aF30.742601394699999
aF36.009086608899999
aF25.793798446699999
aF29.913717269900001
aF34.762382507300003
aF25.993810653699999
aF31.167854309100001
aF36.513698577900001
aF24.918533325199999
aF31.817600250200002
aF35.998336792000003
aF24.423702240000001
aF32.640792846700002
aF37.565700530999997
aF23.960533142100001
aF31.219600677500001
aF38.081832885700003
aF24.454862594600002
aF30.396593093900002
aF38.287918090799998
aF23.687229156499999
aF31.988889694200001
aF37.0713615417
aF23.061971664400001
aF30.850389480600001
aF37.280696868900002
aF25.981533050500001
aF32.504600524899999
aF36.592220306400002
aF26.654848098799999
aF33.015232086200001
aF37.954746246299997
aF25.5309238434
aF33.233100891100001
aF37.860839843800001
aF26.542856216400001
aF31.772172927900002
aF33.865699768100001
aF23.3805332184
aF31.0666007996
aF34.115699768100001
aF22.2535324097
aF31.452600479099999
aF25.837697982800002
aF26.305532455400002
aF33.285602569600002
aF26.385816574100001
aF25.490688324000001
aF33.049602508500001
aF26.261697769200001
aF27.606533050500001
aF32.755599975599999
aF26.005193710299999
aF28.418729782100002
aF33.435775756799998
aF27.765699386600001
aF27.6825332642
aF32.444599151600002
aF27.986078262300001
aF26.947330474899999
aF31.6706447601
aF28.193698883100001
aF29.061532974199999
aF31.969600677500001
aF27.974042892500002
aF29.7972583771
aF32.743270873999997
aF29.264169692999999
aF29.059598922700001
aF31.764198303200001
aF27.6502361298
aF29.318029403699999
aF31.060228347799999
aF28.599699020399999
aF27.2535324097
aF33.6595993042
aF28.3496456146
aF26.2272491455
aF33.928516387899997
aF29.659753799400001
aF27.3161640167
aF33.4137115479
aF28.3828105927
aF27.912094116199999
aF34.500644683799997
aF25.4316978455
aF27.9505329132
aF31.525600433299999
aF25.812698364300001
aF27.725532531700001
aF30.373600006099998
aF22.789699554399999
aF31.243534088099999
aF29.8946018219
aF22.234779357899999
aF30.7930755615
aF29.180982589700001
aF22.916698455799999
aF32.695533752400003
aF29.857601165799998
aF23.963119506799998
aF32.974884033199999
aF29.734853744500001
aF22.114698409999999
aF33.266532897899999
aF28.678600311299999
aF21.1292896271
aF32.800647735600002
aF28.674264907800001
aF22.00715065
aF34.341510772699998
aF28.8233661652
aF22.812698364300001
aF32.998535156199999
aF27.3386001587
aF23.840284347499999
aF33.355915069600002
aF27.405277252200001
aF22.813425064099999
aF31.923799514799999
aF27.156812667800001
aF22.1066989899
aF33.702533721899997
aF26.198600768999999
aF21.0566062927
aF33.410488128700003
aF26.187839508100001
aF22.181930542
aF34.781051635700003
aF26.3373088837
aF22.702697753900001
aF33.353534698499999
aF24.9116001129
aF22.179187774700001
aF32.680446624799998
aF24.370313644399999
aF23.8556995392
aF33.812534332299997
aF24.415601730300001
aF24.577697753900001
aF34.702533721899997
aF25.0836009979
aF24.255130767800001
aF35.040142059300003
aF25.979185104399999
aF25.446668624899999
aF35.038471221899997
aF24.693555831899999
aF24.279699325599999
aF33.4035339355
aF23.233600616499999
aF23.729774475100001
aF32.741989135700003
aF22.704412460299999
aF25.151920318599998
aF33.754180908199999
aF22.864313125599999
aF22.4976978302
aF33.354534149199999
aF31.175600051899998
aF23.158699035600002
aF34.287532806400002
aF31.633600234999999
aF22.718698501599999
aF32.053531646700002
aF34.276599883999999
aF22.381547927900002
aF31.244977950999999
aF33.773941039999997
aF23.795698165899999
aF31.864532470699999
aF35.257602691700001
aF23.466291427600002
aF32.205947876000003
aF36.238941192600002
aF24.175699234
aF30.3805332184
aF35.356601715099998
aF23.346197128299998
aF29.7814044952
aF35.732196807900003
aF24.502393722499999
aF29.985301971399998
aF34.394748687700002
aF25.335699081400001
aF30.178533554099999
aF36.328601837199997
aF25.0546989441
aF30.102533340499999
aF37.704601287800003
aF24.0246677399
aF30.188531875599999
aF38.050636291499998
aF26.0726985931
aF29.920534133899999
aF38.612602233899999
aF25.796541214000001
aF29.866168975800001
aF39.665634155299998
aF27.400699615499999
aF29.8075332642
aF38.238601684599999
aF28.2148075104
aF29.676954269399999
aF38.951538085899998
aF27.674697876
aF29.868534088099999
aF36.865600585899998
aF28.706613540599999
aF29.757448196399999
aF36.532562255899997
aF26.654699325599999
aF30.067533492999999
aF35.928600311300002
aF26.895149231000001
aF30.137002944900001
aF34.867725372300001
aF24.983697891199999
aF32.7415351868
aF34.928600311300002
aF25.640699386600001
aF33.304534912100003
aF35.814601898200003
aF25.233697891199999
aF32.922534942600002
aF33.629600524899999
aF24.664299011200001
aF32.4622879028
aF32.933860778800003
aF26.406698226900001
aF33.667533874500002
aF33.181602478000002
aF27.303050994900001
aF33.289535522500003
aF33.673301696800003
aF26.5726985931
aF33.5065345764
aF31.676601409900002
aF26.656171798700001
aF32.442203521700002
aF31.4567508698
aF25.716735839799998
aF33.920982360799997
aF31.144004821799999
aF27.758088356226509
aF34.28390297328513
aF31.13396602747547
aF27.609315731058313
aF35.356633567684682
aF30.569049548149049
aF28.950191628712979
aF33.762017626005779
aF31.294577002480978
aF29.748056968384514
aF34.351835606635234
aF31.075861161762603
aF29.094538735914959
aF32.926870198257475
aF31.820023076592133
aF26.335699081400001
aF35.1115341187
aF33.632602691700001
aF27.389721839345388
aF35.741189833676415
aF33.734644902958557
aF25.150699615499999
aF35.656532287600001
aF33.974601745599998
aF24.261407852200001
aF35.193344116200002
aF33.853286743200002
aF25.154699325599999
aF37.050533294700003
aF34.492599487299998
aF25.660626742337527
aF37.699034867554126
aF33.775371954620731
aF23.713699340800002
aF37.550533294700003
aF34.679599762000002
aF23.196838378900001
aF36.796554565400001
aF35.273292541499998
aF23.777173995999998
aF38.4787216187
aF35.247528076199998
aF22.949699401899998
aF37.794532775900002
aF33.401599883999999
aF22.853086471600001
aF36.851810455299997
aF32.863048553500001
aF21.9598903656
aF38.156795501700003
aF33.679347991900002
aF23.635698318500001
aF38.824531555199997
aF32.505599975599999
aF23.913698196399999
aF39.919532775900002
aF33.075599670400003
aF23.904699325599999
aF38.558532714800002
aF31.301601409900002
aF25.934698104900001
aF37.1305351257
aF35.788600921600001
aF26.558562903863258
aF38.170502478722355
aF36.023806223327696
aF26.058698654200001
aF36.059532165500002
aF36.562599182100001
aF25.512435913099999
aF35.2351379395
aF36.357490539600001
aF26.906698226900001
aF36.052532196000001
aF37.7625999451
aF26.8311252594
aF37.014446258500001
aF38.269660949699997
aF26.468698501599999
aF34.950534820599998
aF38.734600067099997
aF26.5813217163
aF34.007144928000002
aF38.200344085700003
aF27.169250488300001
aF34.980766296399999
aF39.569114685099997
aF25.045698165899999
aF35.067531585700003
aF39.2625999451
aF24.999458313000002
aF35.851219177200001
aF40.018775939900003
aF24.3980064392
aF35.331390380899997
aF38.4265518188
aF24.546699523899999
aF33.779533386200001
aF39.871601104699998
aF25.243698120099999
aF33.067531585700003
aF40.613601684599999
aF23.283699035600002
aF33.466533660899998
aF39.571601867699997
aF22.8752536774
aF32.619663238500003
aF39.940498352100001
aF22.742639541599999
aF34.078094482399997
aF38.977169036900001
aF28.410362584763583
aF35.897830641746225
aF37.446653343843877
aF29.234264941530913
aF36.046455046440329
aF38.350344893709888
aF28.785709358340604
aF35.62828069994076
aF36.189882355407313
aF28.050682786380545
aF35.550539335759751
aF35.496386598156313
aF30.16910899402237
aF35.456636241414607
aF35.723575931680507
aF30.824412361282953
aF35.29947293757921
aF36.581143082300862
aF30.251373664076102
aF34.221698822985786
aF34.808760397986042
aF29.633850725629532
aF34.408482249049278
aF33.931405288051899
aF31.281401235389918
aF34.139710999389365
aF34.462024707813285
aF29.856867413129613
aF32.858241347012196
aF35.403860127800897
aF28.809528350800001
aF32.847743987999998
aF35.714584350599999
aF30.045838970884564
aF31.819251272780996
aF34.295044943950877
aF31.083947130794485
aF31.811373132274298
aF33.957269782787876
aF29.790887832599999
aF30.834247589099999
aF34.660079956099999
aF29.395882471901576
aF32.050943686391854
aF33.457810884484658
aF30.727564675281521
aF32.487630012176453
aF36.602606974179288
aF30.628508109283757
aF33.243005321252014
aF37.378008461953868
aF30.3949642181
aF31.5421638489
aF37.023071289100002
aF31.771043052360156
aF32.404676084810148
aF36.301681764466807
aF30.731356951281775
aF36.67637658996113
aF34.970144729059257
aF31.951102451988309
aF36.847105814685804
aF34.922832024198243
aF29.893451569004732
aF37.532979401073852
aF34.373936608928403
aF28.904875377114369
aF37.308999785609664
aF34.372217895579396
aF30.3571402712194
aF38.754147635916937
aF33.683979096023194
aF31.030519304241828
aF38.465920225281934
aF32.874621631331621
aF29.16208289274401
aF39.506427562600201
aF33.087091879917971
aF28.401766028115478
aF39.656367018793723
aF33.85653565711732
aF29.503826888490234
aF40.480140122643732
aF32.742001057246028
aF28.548513817994241
aF38.786106889827657
aF31.8845583993925
aF29.299864630675849
aF38.6961039957773
aF31.098423971348883
aF28.209585564763906
aF37.790937114393067
aF32.172471138334359
aF27.358984931917892
aF39.596980228552859
aF31.366828644624334
aF26.568729081444388
aF39.601806686879421
aF32.120118344770233
aF27.662307074027218
aF40.626947663410469
aF31.17044200435333
aF26.838095623928549
aF38.968372492159425
aF30.078519590417301
aF27.612386869805544
aF39.024754361476717
aF29.30927712112727
aF26.612629816835
aF37.916424906577582
aF30.268416939477035
aF25.623088894558112
aF39.670425979242985
aF29.624238237932335
aF25.813692912271275
aF40.652877782196505
aF29.456454447084202
aF25.24986972462904
aF39.233640851859334
aF28.792412684920492
aF24.900892373289974
aF39.620073596029805
aF30.350279314782259
aF31.141327128538261
aF39.667457116249807
aF34.635306692847003
aF30.708821092533551
aF39.873045146276553
aF35.769002229132653
aF32.286996265032052
aF40.192008750789583
aF34.195310754794818
aF32.588945966957581
aF39.976231139154073
aF33.252788054991825
aF33.186290514562373
aF41.05335606442285
aF34.981372397087206
aF33.893667996164382
aF41.533768638917486
aF34.3035413370675
aF32.594555177894783
aF41.836379431978543
aF35.456823187254322
aF33.997676939160193
aF40.341005020975601
aF36.077629108931163
aF34.919295171035706
aF40.931720811052507
aF36.637412660380448
aF33.688067093597809
aF39.080433959678331
aF36.391357886918584
aF32.954022858046116
aF38.627341902912605
aF35.864831700251607
aF34.359733525683239
aF38.274441940283211
aF37.426865034549792
aF34.568392481190436
aF38.903907049572602
aF38.293460322804265
aF33.419743067398606
aF37.135287778148324
aF37.876113072279026
aF33.183477374571339
aF36.509785581428538
aF37.020018727605645
aF34.001779608116678
aF36.217138952642003
aF38.941542245486403
aF34.138181499792857
aF36.767709602158128
aF39.869833800025624
aF33.329127206853798
aF35.378426320012508
aF39.118207938886705
aF34.956086189949751
aF35.816162634319404
aF38.609377671533572
aF32.118099781891083
aF37.705669957872438
aF38.458762865733007
aF31.535202215754129
aF38.199426791732492
aF37.68319214221156
aF31.520161246354284
aF36.899400102125789
aF38.87554064098741
aF32.346018411632301
aF38.419914621578293
aF39.250484130092651
aF35.698844022148648
aF37.748611312258369
aF36.896250199657104
aF35.785100111418174
aF37.355283571475354
aF35.727334560472691
aF36.746517826457584
aF37.725583070960184
aF37.725487563616554
aF36.620431506959022
aF38.012298599913244
aF38.693148543060715
aF38.08843909362195
aF37.275910517142584
aF37.318548504126355
aF38.349024838532571
aF37.818476349641585
aF36.410114569913951
aF39.1424398606407
aF37.675876499923163
aF38.363688724240085
aF40.12691052723622
aF37.370494173580795
aF38.009953438215199
aF39.13829328911055
aF38.76157762951582
aF38.463822974548307
aF38.930058163281622
aF37.112815654348587
aF39.640598056833717
aF39.813123292487191
aF36.851600560020373
aF39.988615709013452
aF38.127445216815516
aF35.780810764937698
aF36.95063083781497
aF37.146339659524649
aF35.053687508940975
aF37.141164953272614
aF39.221124511516336
aF35.307297135527584
aF36.334249776232198
aF40.00320267198051
aF35.94173454558468
aF36.204466701454955
aF39.299284917092557
aF33.941890922553249
aF35.762006356641422
aF38.5181985159793
aF33.837848511380699
aF35.010343382883654
aF40.670080022834654
aF33.725907395727774
aF35.111177172455179
aF40.874403090363849
aF34.593765321969734
aF34.510158464975667
aF41.445938485695784
aF33.672755177652512
aF35.876097506006445
aF40.730835902363864
aF32.460260896745652
aF34.234562823776827
aF40.520957870159428
aF31.584685030360433
aF34.848841810153694
aF39.977522781240943
aF32.515756106323529
aF33.449431963387866
aF42.110144133899141
aF32.272256419473692
aF33.592481542753575
aF42.856741454488905
aF32.240218475974793
aF34.389305490509905
aF42.122931802356391
aF31.318247064459289
aF33.063028955828877
aF42.42382039544156
aF33.35622439710783
aF32.643381475505386
aF41.663764165937827
aF33.990172751243286
aF32.377388681744009
aF43.606166849788202
aF33.737942957493608
aF32.212978416954257
aF44.669890051766743
aF33.044323166153731
aF32.521143484743703
aF44.5354804993
aF32.1747322083
aF33.004825592000003
aF45.595443725599999
aF33.345310211200001
aF32.244010925300003
aF43.719445840367833
aF34.804494119336631
aF31.475980558980609
aF42.869918995940161
aF35.332654487509615
aF31.230397322837
aF44.591783962301463
aF35.093076412046202
aF31.083403828768041
aF39.083027317065991
aF32.853362435362044
aF36.799410382585435
aF38.320940717585387
aF31.912590457250257
aF36.586013560742913
aF39.79073994848909
aF32.988173169647055
aF37.90734204161199
aF40.391258312093321
aF33.805379767162961
aF37.994289158589076
aF39.7666969299
aF32.052532196000001
aF39.0176010132
aF39.814281463599997
aF31.037693023700001
aF38.622714996299997
aF40.974697112999998
aF32.283535003700003
aF39.9095993042
aF40.751270294199998
aF33.210670471199997
aF40.437423706099999
aF40.957283019999998
aF31.4518222809
aF40.613914489700001
aF42.341697692899999
aF32.3805351257
aF39.280601501500001
aF43.045757293699999
aF32.250034332299997
aF40.102413177499997
aF42.401332855200003
aF31.521795272799999
aF38.611934661900001
aF42.701007261160193
aF33.655152396656447
aF38.504170379187833
aF43.757698059100001
aF33.641532897899999
aF37.838600158699997
aF41.926752369419177
aF34.641230877324659
aF38.500425780802608
aF38.435699462899997
aF32.150531768800001
aF39.729598998999997
aF37.871700286900001
aF31.159532547000001
aF40.179599762000002
aF37.902552809306322
aF33.361088522117207
aF39.911845815526661
aF38.420201552050301
aF34.189162596186939
aF39.658163086862224
aF36.624984762080778
aF33.510720591242901
aF40.609020790270002
aF36.668670654300001
aF32.934413909900002
aF41.539962768599999
aF36.365320040977082
aF34.971467145218334
aF40.975559434960601
aF36.830407212218809
aF35.643763857384286
aF40.256065102509474
aF35.288855570176125
aF35.130845436186306
aF40.961216787011004
aF36.824951171899997
aF35.2763214111
aF42.390449523900003
aF37.8596992493
aF34.725532531699997
aF42.805599212600001
aF36.043750762899997
aF35.939178466800001
aF43.106712341300003
aF35.48156207337253
aF32.957301205797258
aF39.75884741063873
aF34.550697326700003
aF32.3615341187
aF40.280601501500001
aF35.564084589250463
aF33.083721024409819
aF38.432980706023329
aF36.35595963670994
aF33.595936145943391
aF38.061028786874573
aF34.60731185673778
aF32.462396373465594
aF37.51542422198245
aF33.603044775536993
aF32.793810854223672
aF37.778032292334842
aF34.896698526220625
aF32.873051440918125
aF36.067318000895227
aF35.890657797014704
aF32.526790369405731
aF35.788981218082689
aF34.163892798736633
aF32.40386025052684
aF35.409088109008067
aF34.842047337765081
aF34.277884862950501
aF35.897967840117801
aF35.602827295703896
aF34.653442073511386
aF36.388100935315578
aF34.648696899400001
aF30.9345340729
aF37.6366004944
aF33.576698303199997
aF30.3305339813
aF37.7835998535
aF35.8787002563
aF30.3795337677
aF37.557601928700002
aF36.714632314772267
aF30.945283022358943
aF37.452800811040611
aF35.954700469999999
aF28.912532806400002
aF37.680599212600001
aF35.365509033199999
aF28.428297042800001
aF36.901840210000003
aF37.412696838400002
aF28.487533569299998
aF37.524600982700001
aF37.634460449199999
aF28.745018005399999
aF36.488925933799997
aF38.068584442099997
aF29.052154541
aF38.187259674099998
aF37.6416969299
aF26.980533599899999
aF37.738601684599999
aF37.415470123299997
aF26.724277496300001
aF38.773616790799998
aF36.731697082499998
aF26.1815338135
aF36.805599212600001
aF36.957672119100003
aF26.436927795399999
aF35.770317077599998
aF36.897422790500002
aF25.115438461299998
aF36.960769653299998
aF35.690235137899997
aF26.421726226800001
aF37.019523620599998
aF39.116699218800001
aF26.666532516499998
aF37.570602417000003
aF39.694412231400001
aF27.230045318599998
aF38.303264617899998
aF39.281101226799997
aF25.5996570587
aF37.721759796100002
aF39.4356422424
aF26.944017410299999
aF36.5659217834
aF35.355697631799998
aF28.445533752399999
aF38.996601104699998
aF34.6077003479
aF27.469533920300002
aF39.058601379400002
aF35.650699615500002
aF29.175533294699999
aF40.105602264399998
aF36.260887146000002
aF29.980146408100001
aF40.124786377
aF35.139698028600002
aF28.663534164400001
aF41.374599456799999
aF35.3063850403
aF27.588190078699999
aF41.437458038300001
aF35.868698120099999
aF29.345533370999998
aF42.552600860600002
aF36.943355560299999
aF29.197641372700001
aF42.446102142299999
aF35.646812439000001
aF30.412683486900001
aF42.5450172424
aF35.399700164800002
aF28.737533569299998
aF43.873600006099998
aF35.884815216100002
aF29.285306930499999
aF44.681503295900001
aF34.318450927699999
aF28.8440628052
aF43.9611206055
aF35.755699157700001
aF27.261533737200001
aF44.003601074199999
aF36.919696807900003
aF26.905532836900001
aF43.774600982700001
aF34.771697998
aF26.423532485999999
aF44.338600158699997
aF34.963989257800002
aF25.436759948700001
aF44.435581207299997
aF33.8395652771
aF26.7802371979
aF44.493499755899997
aF33.629699707
aF28.8105335236
aF41.441600799600003
aF32.9846992493
aF27.941534042400001
aF42.047599792500002
aF33.023696899400001
aF29.856533050500001
aF40.864601135299999
aF33.5709152222
aF30.609544754000002
aF40.472648620599998
aF31.5696983337
aF29.979534149199999
aF40.853599548299997
aF31.1965312958
aF29.930418014499999
aF41.876552581799999
aF31.116699218800001
aF31.3235340118
aF40.224601745599998
aF31.7520961761
aF31.518026351900001
aF39.360572814900003
aF30.0838775635
aF31.206535339399998
aF39.8964385986
aF31.210699081400001
aF32.490531921399999
aF41.195602417000003
aF30.600700378399999
aF32.272167205800002
aF42.072139739999997
aF32.250049591100002
aF32.616168975800001
aF41.499031066900002
aF30.708698272700001
aF33.789531707800002
aF40.530601501500001
aF31.178312301599998
aF33.854309082
aF39.549087524400001
aF29.6292572021
aF33.696880340600003
aF40.410934448200003
aF31.026699066199999
aF35.056533813500003
aF41.333599090600003
aF32.108409881599997
aF35.190628051799997
aF41.337944030800003
aF30.558334350599999
aF35.901901245099999
aF40.829528808600003
aF30.532699585
aF34.978534698499999
aF42.730602264399998
aF30.966901779200001
aF34.1955184937
aF43.197994232200003
aF30.7646350861
aF35.832283019999998
aF43.217853546100002
aF29.530324935900001
aF34.854709625200002
aF42.726802825900002
aF30.967699050899999
aF28.783533096300001
aF40.109600067099997
aF29.925699234
aF28.274534225499998
aF40.503601074199999
aF31.6066989899
aF28.3245334625
aF39.040599823000001
aF32.417472839399998
aF28.8160209656
aF38.692489623999997
aF31.1216983795
aF27.138532638499999
aF38.2835998535
aF30.046714782700001
aF27.1353225708
aF38.103324890099998
aF31.8576984406
aF27.085533142100001
aF36.955600738500003
aF32.923511505100002
aF27.2170276642
aF37.142292022699998
aF31.6246986389
aF25.745532989499999
aF36.246601104699998
aF30.559083938600001
aF25.613531112699999
aF36.059143066399997
aF32.163585662800003
aF25.736644744900001
aF35.299171447799999
aF31.985610961900001
aF24.932796478299998
aF36.876918792700003
aF31.4996986389
aF28.248533248899999
aF36.040599823000001
aF30.489208221399998
aF28.051677703900001
aF35.682472228999998
aF31.494581222499999
aF29.138278961200001
aF36.6702232361
aF32.423698425300003
aF28.473533630399999
aF34.852600097699998
aF32.428977966300003
aF27.5843219757
aF34.222225189200003
aF32.070549011200001
aF29.326745986900001
aF34.273452758799998
aF33.434352874799998
aF28.6709213257
aF35.209980010999999
aF31.331699371300001
aF25.8975334167
aF39.131599426299999
aF30.409698486300002
aF25.093532562299998
aF39.2506027222
aF41.529697418200001
aF26.389533996600001
aF34.522602081300001
aF41.863555908199999
aF26.083667755099999
aF35.425422668499998
aF41.574699401899998
aF27.817533492999999
aF34.214599609399997
aF40.5696144104
aF28.169147491499999
aF33.981632232700001
aF42.084697723399998
aF28.5725326538
aF35.455600738500003
aF43.093803405800003
aF28.2377967834
aF35.695930480999998
aF42.096683502200001
aF29.643049240100002
aF35.250774383500001
aF41.425201416
aF28.372053146399999
aF36.299976348900003
aF42.408699035600002
aF28.0785331726
aF32.981601715099998
aF42.041698455800002
aF28.8785324097
aF32.110599517799997
aF43.548698425300003
aF27.3795337677
aF32.895599365199999
aF43.8583259583
aF26.782773971600001
aF33.649330139200003
aF44.405696868900002
aF27.516532897899999
aF31.727600097700002
aF44.622779846199997
aF28.567249298099998
aF31.535316467299999
aF45.7336997986
aF26.7785339355
aF31.985601425199999
aF46.234657287600001
aF27.283643722499999
aF32.811435699500002
aF45.4899559021
aF25.757480621300001
aF32.279098510700003
aF46.659698486300002
aF26.7515335083
aF30.7676010132
aF46.155731201199998
aF26.2117786407
aF29.965864181499999
aF46.843151092500001
aF27.779121398899999
aF30.4537410736
aF47.9856987
aF26.0725326538
aF31.080600738499999
aF48.685390472400002
aF26.844909668
aF31.399921417200002
aF47.8148269653
aF25.3759746552
aF31.901397705099999
aF48.570697784399997
aF25.317533492999999
aF29.884601592999999
aF47.743675231899999
aF24.898328781099998
aF29.311540603600001
aF49.114952087399999
aF26.031784057599999
aF29.266757965099998
aF49.4986991882
aF24.211532592800001
aF30.307600021399999
aF48.994468689000001
aF23.549354553200001
aF30.8797645569
aF49.859264373800002
aF23.742961883500001
aF29.488740921000002
aF50.265335082999997
aF24.599817276
aF30.838262558
aF43.731697082499998
aF26.988533019999998
aF30.4586009979
aF43.881698608400001
aF27.5745334625
aF29.361600875899999
aF40.468700408899998
aF26.8285331726
aF29.720600128200001
aF40.428485870400003
aF26.513732910200002
aF30.6794452667
aF39.523696899400001
aF27.854534149199999
aF29.288600921600001
aF38.889709472699998
aF27.4543571472
aF28.497388839700001
aF38.629699707
aF28.3095340729
aF30.450601577800001
aF38.086730957
aF27.440536499
aF30.822261810299999
aF39.271251678500001
aF28.7013378143
aF31.239902496300001
aF37.630699157700001
aF29.390533447300001
aF30.0206012726
aF37.469017028800003
aF29.267692565899999
aF28.949680328399999
aF36.699890136699999
aF29.1946277618
aF30.5528774261
aF38.12683220442775
aF30.822823568071751
aF30.325530163085933
aF38.2071393216481
aF30.949881279654569
aF31.403403025254001
aF39.120308906613879
aF30.973305339010672
aF29.911952486037922
aF37.222580665715789
aF31.917825692512629
aF29.750466542077341
aF37.105095871741007
aF31.751617167300235
aF28.677137105777639
aF36.236295939858259
aF31.857376207914651
aF30.220908019823817
aF37.81392719890966
aF33.259804226625981
aF29.975350709562875
aF38.753030847762801
aF33.35903581665913
aF29.58681995182868
aF37.259854425320697
aF34.010166894803866
aF29.571561917388198
aF37.920154682569809
aF33.486193020192459
aF30.962871013984916
aF40.2356987
aF29.036533355700001
aF28.6366004944
aF39.789699554400002
aF29.546533584599999
aF27.5906009674
aF41.305698394799997
aF29.518533706700001
aF29.2646007538
aF41.6633872986
aF29.130975723300001
aF30.125970840499999
aF41.970699310299999
aF30.693532943699999
aF28.704601287799999
aF41.233479275509794
aF31.484415932744469
aF28.556062389275471
aF43.075698852499997
aF31.231533050500001
aF29.606601715099998
aF42.673419167488383
aF31.447905860051431
aF30.592465780947261
aF43.884834289600001
aF30.507223129300002
aF29.700260162399999
aF43.652231161784869
aF32.503108694430232
aF29.020649444486288
aF42.96417545812379
aF33.478334314472491
aF28.77756876844289
aF44.938697814900003
aF32.533535003700003
aF28.8226013184
aF45.371227264399998
aF33.368618011499997
aF28.454290390000001
aF45.493919372599997
aF31.711383819600002
aF29.012083053600001
aF42.570697784399997
aF30.377532959
aF27.3346004486
aF42.4836997986
aF31.206533432000001
aF26.408601760900002
aF43.188697814900003
aF29.2015323639
aF27.175600051899998
aF43.292251586900001
aF28.530305862399999
aF27.923149108899999
aF43.762699127200001
aF28.8785324097
aF25.868600845300001
aF44.4859313965
aF29.6396503448
aF25.575794219999999
aF44.4786987305
aF27.524534225499998
aF25.9416007996
aF43.814842224099998
aF26.812913894699999
aF26.432508468599998
aF44.660667419399999
aF27.203069686900001
aF24.916101455700002
aF45.781700134300003
aF27.587533950800001
aF26.684600830099999
aF46.405696868900002
aF28.6515331268
aF26.8916015625
aF46.238697051999999
aF26.510532379200001
aF27.1206016541
aF42.685699462899997
aF28.8235340118
aF24.791601181000001
aF42.931697845499997
aF29.259532928500001
aF23.658601760900002
aF41.4956970215
aF28.338533401500001
aF25.114601135299999
aF41.354148864700001
aF27.950592041
aF26.036319732700001
aF40.371700286900001
aF28.285533905000001
aF24.149600982700001
aF40.687808990500002
aF27.828264236500001
aF23.2120094299
aF39.262699127200001
aF27.443532943699999
aF24.749601364099998
aF39.633010864299997
aF26.441595077500001
aF24.966606140100001
aF38.970733642600003
aF27.931709289600001
aF25.6794071198
aF38.043697357200003
aF27.3265323639
aF23.861600875899999
aF38.188697814900003
aF27.339532852200001
aF22.629600524899999
aF36.845699310299999
aF27.167533874499998
aF24.4646015167
aF36.008956909200002
aF27.085733413700002
aF23.904895782499999
aF36.791973114000001
aF27.131147384599998
aF25.472515106199999
aF39.915699005100002
aF29.694532394399999
aF23.829601287799999
aF39.767700195300002
aF30.082532882700001
aF22.6596012115
aF39.682697296100002
aF30.500534057599999
aF24.861600875899999
aF39.754856109599999
aF30.1387176514
aF25.8018035889
aF39.275699615500002
aF31.8815326691
aF24.685600280799999
aF38.319492340099998
aF31.9420585632
aF24.165882110599998
aF39.084576032967497
aF32.512642476517669
aF26.073661678925436
aF38.290412513482337
aF31.978858061204004
aF26.596471724818311
aF39.999961132556137
aF32.38520798417948
aF26.653095318783958
aF38.738099922145217
aF33.988360516732939
aF26.039365754729367
aF37.406041158990504
aF34.405639005109016
aF25.839661164349593
aF36.620656578800656
aF33.673041348740277
aF25.721675914474439
aF37.100357892081526
aF35.781373068795936
aF25.788199242567995
aF36.085700539371075
aF36.117635301907129
aF25.659106824597426
aF38.129934217174615
aF36.737530179233481
aF25.912047052206997
aF37.860847196139652
aF38.06760224033124
aF25.85619340711564
aF36.938131281588539
aF38.296260255347228
aF26.043927474774641
aF39.45851430010751
aF36.31584398479967
aF26.113932431020903
aF40.235008350549549
aF37.055346031771307
aF26.233125704737628
aF39.761826528847571
aF34.944849871953089
aF26.185663440330231
aF40.785483203400609
aF34.631379651360881
aF26.349569863976441
aF40.257698059100001
aF32.669532775900002
aF23.848600387600001
aF39.898696899400001
aF33.444534301799997
aF22.935600280799999
aF41.563697814900003
aF32.530532836900001
aF24.102600097700002
aF41.841201782200002
aF31.970779418900001
aF24.896179199199999
aF42.600700378399999
aF33.231533050499998
aF23.354600906400002
aF42.401836395300002
aF34.303142547599997
aF23.3401203156
aF43.975700378399999
aF32.998535156199999
aF23.978601455700002
aF44.079700469999999
aF31.93034935
aF24.169033050500001
aF45.1077003479
aF33.464534759499998
aF23.0886001587
aF45.0046272278
aF34.532794952400003
aF22.8980903625
aF46.060661315899999
aF33.274333953899998
aF23.5823459625
aF45.074214935299999
aF32.922554016100001
aF22.143486022899999
aF44.036697387700002
aF33.760532379200001
aF25.324600219699999
aF43.259170532200002
aF33.441181182900003
aF26.0105991364
aF45.012050628700003
aF33.606330871600001
aF25.7861328125
aF43.907405853299998
aF34.824817657499999
aF25.138645172099999
aF42.555698394799997
aF32.824531555199997
aF21.883600234999999
aF42.698699951199998
aF33.662532806400002
aF20.983600616499999
aF39.7516975403
aF31.943532943699999
aF20.337600708
aF39.769550323499999
aF31.586223602299999
aF21.282117843599998
aF38.507698059100001
aF32.519535064700001
aF19.8396015167
aF38.216896057100001
aF31.959796905499999
aF18.950653076199998
aF37.343700408899998
aF32.493534088099999
aF20.837600708
aF37.716464996299997
aF32.9435424805
aF21.757730484
aF36.561798095699999
aF33.125007629400002
aF20.4157352448
aF36.764698028600002
aF31.094533920300002
aF21.146600723300001
aF36.265457153299998
aF30.6766147614
aF20.2724132538
aF37.547515869100003
aF30.412309646600001
aF21.4780712128
aF35.544696807900003
aF31.3075332642
aF22.490600585900001
aF34.896697998
aF29.6815338135
aF22.6906013489
aF35.703025817899999
aF28.998979568500001
aF22.9590301514
aF34.145339965799998
aF29.683868408199999
aF23.480255127
aF34.440238952599998
aF29.354310989399998
aF21.756431579600001
aF38.708698272699998
aF33.990531921399999
aF19.437601089499999
aF38.026699066200003
aF34.449531555199997
aF18.5346012115
aF39.590698242199998
aF34.702533721899997
aF20.1406002045
aF40.133708953899998
aF34.312885284399997
aF20.897840499899999
aF39.681697845499997
aF36.1485328674
aF19.8896007538
aF38.847080230700001
aF36.568775176999999
aF19.328435897799999
aF39.877475738500003
aF36.951137542700003
aF21.198972701999999
aF39.9436836243
aF38.006576538099999
aF20.934625625599999
aF38.664124239316671
aF36.803135196160007
aF22.116620896941118
aF38.550667832406141
aF35.769847488489219
aF22.448288737576707
aF38.756145233673116
aF37.451465750316217
aF22.987758190327078
aF37.800207164492228
aF37.11091792934414
aF21.545543071816979
aF41.1969642639
aF36.559276580800002
aF21.882831573499999
aF41.141654968300003
aF35.513317108199999
aF22.174943924000001
aF41.988803863500003
aF36.692249298100002
aF21.145576477100001
aF41.565804022313785
aF37.390062083609912
aF23.11512122797858
aF40.840523127248716
aF37.232923715998986
aF23.909630438149094
aF42.549118986585448
aF37.085793641718858
aF23.475301991897592
aF41.594022546149581
aF38.444626982931361
aF22.851805019311865
aF40.768699646000002
aF36.493534088099999
aF18.878601074199999
aF41.019699096700002
aF37.681533813500003
aF18.6416015625
aF41.451698303199997
aF35.567531585700003
aF18.225601196300001
aF41.271564483600002
aF34.579074859599999
aF18.328550338700001
aF42.557697296100002
aF35.988533019999998
aF17.346601486200001
aF43.254680633500001
aF36.616310119600001
aF17.901771545399999
aF43.322700500499998
aF34.749534606899999
aF16.814599990800001
aF42.594482421899997
aF34.080913543699999
aF16.3555278778
aF44.027240753199997
aF35.093559265099998
aF16.057392120399999
aF44.071697235099997
aF34.009532928500001
aF17.900600433299999
aF43.3897438049
aF33.671260833700003
aF18.6807346344
aF44.531326293900001
aF33.145454406699997
aF17.420793533299999
aF45.151699066200003
aF34.837532043499998
aF18.533601760900002
aF45.981697082499998
aF35.514533996600001
aF17.918600082400001
aF45.174697876000003
aF34.8825340271
aF19.876600265499999
aF45.882785797099999
aF35.426574707
aF20.348545074499999
aF44.483791351299999
aF34.372108459499998
aF20.407836914099999
aF42.1036987305
aF36.831531524699997
aF16.1566009521
aF42.915699005100002
aF37.660533905000001
aF15.693600654600001
aF39.551700592000003
aF38.990531921399999
aF16.108600616499999
aF39.840457916299997
aF38.386825561499997
aF16.865077972400002
aF38.910697937000002
aF40.263534545900001
aF16.442600250200002
aF37.8746986389
aF40.296592712399999
aF16.105386734
aF38.938697814900003
aF40.473533630399999
aF17.973600387600001
aF39.957485198999997
aF40.338275909399997
aF18.336751937900001
aF38.459697723399998
aF41.884532928500001
aF18.314599990800001
aF37.440742492699997
aF42.020397186300002
aF17.9521465302
aF38.482162475599999
aF42.025173187299998
aF19.395256042500002
aF39.114143371600001
aF42.615600585899998
aF17.839899063099999
aF38.068698883099998
aF39.433532714800002
aF18.627601623499999
aF38.445873260500001
aF38.439704894999998
aF18.3864650726
aF38.082874298100002
aF39.574619293200001
aF19.708337783800001
aF37.046516418499998
aF39.5321807861
aF18.262205123899999
aF39.6086997986
aF41.384532928500001
aF15.664601326
aF40.846698760999999
aF41.3815345764
aF15.527601242099999
aF34.976699829099999
aF44.969532012899997
aF14.704601287799999
aF35.975456237800003
aF44.823348998999997
aF14.669757842999999
aF34.222698211699999
aF44.406532287600001
aF15.852601051300001
aF33.220237731899999
aF44.102935791
aF15.550943374599999
aF34.9796981812
aF43.168533325200002
aF16.356601715099998
aF35.995105743400003
aF43.498218536400003
aF16.576499939000001
aF34.519580841100002
aF42.780109405499999
aF17.265182495099999
aF35.019699096700002
aF42.075534820599998
aF15.3026008606
aF36.087699890099998
aF41.515533447300001
aF15.057600975
aF33.9976997375
aF41.789531707800002
aF14.664601326
aF34.041698455800002
aF45.384532928500001
aF16.9676017761
aF33.3766975403
aF45.019535064700001
aF17.951601028399999
aF34.590698242199998
aF46.6115341187
aF16.8886013031
aF35.209968566900002
aF46.889308929400002
aF16.140640258800001
aF34.331699371299997
aF47.580532073999997
aF17.985601425199999
aF34.610946655299998
aF47.1836395264
aF18.9616107941
aF35.148696899400001
aF48.862533569299998
aF17.722600936900001
aF34.901107788099999
aF49.231887817400001
aF16.727424621600001
aF34.844699859599999
aF49.935531616200002
aF18.749601364099998
aF35.092487335199998
aF49.567054748499999
aF19.745052337600001
aF35.437675476099997
aF50.824275970499997
aF18.533699035600002
aF33.785053253199997
aF50.187812805199997
aF18.709478378299998
aF36.6416969299
aF48.546531677200001
aF17.735601425199999
aF36.865562439000001
aF47.8150558472
aF16.959117889400002
aF37.208328247099999
aF49.458770752
aF17.548910141
aF36.919059753399999
aF48.139755248999997
aF18.708074569699999
aF32.841697692899999
aF47.796531677200001
aF18.005599975599999
aF32.176700592000003
aF48.0045318604
aF16.950601577800001
aF32.209697723399998
aF47.810531616200002
aF19.187601089499999
aF32.739215850800001
aF47.611713409399997
aF20.024370193500001
aF30.7986984253
aF48.092533111599998
aF19.320600509599998
aF30.2051239014
aF47.373031616200002
aF18.756610870399999
aF30.420698165899999
aF47.985534668
aF20.800600051899998
aF31.310846328699999
aF48.192340850800001
aF21.394712448100002
aF29.687282562299998
aF48.776260376000003
aF20.958572387699999
aF29.8236980438
aF46.644535064700001
aF21.227600097700002
aF29.841699600199998
aF46.354534149199999
aF22.573600768999999
aF30.312482833899999
aF47.051185607900003
aF23.2504558563
aF29.311262130700001
aF45.181205749500002
aF23.102556228600001
aF29.355493256560838
aF44.970298532527565
aF24.154955038537707
aF28.7286987305
aF44.2675323486
aF22.227600097700002
aF28.209699630700001
aF43.104534149199999
aF22.773601532000001
aF28.347579261782023
aF42.964628551275766
aF23.711830834797187
aF28.6956977844
aF44.552532196000001
aF20.8956012726
aF28.229845047000001
aF43.8265228271
aF20.229274749799998
aF29.2306995392
aF45.721534728999998
aF20.380599975599999
aF29.185447692899999
aF45.915824890099998
aF19.309011459400001
aF30.440698623700001
aF49.488533019999998
aF18.819601059
aF31.2476978302
aF50.437534332299997
aF18.860601425199999
aF31.563697814899999
aF53.319534301799997
aF20.2146015167
aF31.269374847400002
aF52.432621002200001
aF19.831382751500001
aF32.727699279799999
aF53.339534759499998
aF21.107601165799998
aF32.619606018100001
aF53.9370803833
aF22.012783050500001
aF33.093700408899998
aF51.896533966100002
aF21.487600326500001
aF33.105636596700002
aF51.294673919700003
aF20.578908920300002
aF34.465698242199998
aF51.819534301799997
aF22.169601440400001
aF34.454391479500003
aF52.420818328899998
aF23.0786819458
aF34.688449859599999
aF50.783039092999999
aF22.422908783
aF35.230472564700001
aF52.199954986599998
aF21.492475509599998
aF31.9806995392
aF51.228534698499999
aF22.305601119999999
aF31.075233459500001
aF51.297904968300003
aF21.702756881700001
aF32.266334533699997
aF50.1820373535
aF22.412160873400001
aF31.719697952299999
aF51.828533172599997
aF23.687601089499999
aF31.433542251599999
aF52.874965667700003
aF23.581815719600002
aF30.9145946503
aF51.2798538208
aF24.176332473799999
aF32.624641418499998
aF51.759101867699997
aF24.291219711299998
aF33.8536987305
aF54.1175346375
aF20.493600845300001
aF34.4827003479
aF54.916534423800002
aF21.185600280799999
aF40.846698760999999
aF58.782531738300001
aF29.5846004486
aF41.820522308299999
aF58.973819732700001
aF29.397045135500001
aF40.312698364299997
aF57.465534210199998
aF29.216600418100001
aF39.298412323000001
aF57.306373596199997
aF29.5826454163
aF40.340698242199998
aF57.283535003700003
aF27.678600311299999
aF41.342163085899998
aF57.545387268100001
aF27.337125778200001
aF40.008697509800001
aF55.885532379200001
aF27.232601165799998
aF39.007129669199998
aF55.623115539600001
aF27.573331832899999
aF40.047485351600002
aF55.8318481445
aF26.1446151733
aF40.730606079099999
aF55.187358856199999
aF27.6562747955
aF39.395698547400002
aF58.304534912100003
aF26.989601135299999
aF38.373886108400001
aF57.948272705100003
aF27.120281219500001
aF39.514732360799997
aF59.260345459
aF27.499849319500001
aF39.681697845499997
aF58.480533599899999
aF25.521600723300001
aF39.562408447300001
aF57.525169372599997
aF25.0105705261
aF38.986740112299998
aF59.206760406500003
aF25.100025176999999
aF40.703254699699997
aF58.8372383118
aF25.3901405334
aF41.170700073200003
aF56.389533996600001
aF29.859600067100001
aF42.3736991882
aF56.324531555199997
aF29.630599975599999
aF40.532699585000003
aF55.513534545900001
aF30.6426010132
aF39.534324646000002
aF55.527759551999999
aF30.794742584200002
aF41.320697784399997
aF54.469532012899997
aF31.301601409900002
aF42.309192657499999
aF54.385768890400001
aF30.849975585900001
aF41.487697601299999
aF54.747531890899999
aF32.791599273700001
aF40.506294250499998
aF54.824996948200003
aF33.259513855000002
aF42.046497344999999
aF53.933444976799997
aF33.253227233899999
aF42.029846191399997
aF55.683158874500002
aF32.9286384583
aF40.605697631799998
aF53.137535095200001
aF31.148601532000001
aF39.372682443430193
aF53.09127436390402
aF31.198391431917425
aF41.337050412898712
aF52.021084757459938
aF31.011079209616788
aF42.3507995605
aF52.083122253399999
aF30.942600250200002
aF40.738095842418737
aF50.687233086358894
aF31.043929961636959
aF39.718216474818689
aF50.765781242468996
aF30.667449837037811
aF41.507330075350616
aF49.725911116054959
aF30.117896578913513
aF41.847352567648024
aF50.256189831194682
aF29.227401250409031
aF42.386717312077863
aF49.366930354989741
aF30.64795151007813
aF40.651939239220255
aF48.520448412929063
aF29.682343342574026
aF40.074892655105891
aF48.155054930554506
aF30.530894376401385
aF39.687554817000489
aF48.923112454596414
aF28.563827022048326
aF40.235666242940361
aF49.337689943193737
aF27.719378306962508
aF39.12666800069627
aF48.057532281225228
aF28.228272361374991
aF38.975584503128154
aF49.661209442583292
aF28.925290288800312
aF41.533438036453859
aF47.374753308105909
aF29.186737869632633
aF42.167844945488099
aF47.023419239898026
aF30.000693383958385
aF40.910779912345269
aF46.541415054752228
aF28.86552156930447
aF42.161430532172005
aF47.699801911622743
aF28.360269091602611
aF40.670028545223204
aF50.169488059951128
aF32.487746448680205
aF41.688949859078207
aF50.097773545479043
aF33.175904706839873
aF39.48353036424561
aF49.745632972231888
aF32.907421678036371
aF38.718443575279451
aF49.826242954739989
aF32.248293978848167
aF39.166823963651623
aF49.07702149708642
aF34.167403413741987
aF40.087848472194771
aF48.905240407715503
aF34.726899884500867
aF38.267593025811991
aF50.004843120500517
aF34.995081216409162
aF37.329778833983127
aF50.173529827477381
aF34.465003452801682
aF38.057238662100637
aF49.546999891156354
aF35.962581659492663
aF38.762500614033023
aF50.960558262384474
aF35.155956403494443
aF38.537480752671939
aF47.69466096232987
aF33.884313332850788
aF37.450832335836786
aF47.368425579012204
aF34.366908852280915
aF39.195323706780933
aF46.900938267023882
aF33.038335443376006
aF40.12899210864223
aF47.186218235413151
aF32.758480638017325
aF38.817775325487098
aF45.524071315895981
aF32.706246782287955
aF37.732430063049293
aF45.426706618775377
aF32.700663815251815
aF39.34046789349803
aF45.188255206615288
aF31.306801394037539
aF38.903793408842915
aF45.877647035209868
aF30.583544532547904
aF40.425995636670216
aF45.298630982113309
aF31.290878178915708
aF39.009887868477811
aF43.867325986680399
aF30.944103918049876
aF38.030810620009099
aF43.830618907721693
aF30.808118570137946
aF39.400395745984262
aF44.551148895476466
aF33.732245082816853
aF40.504760354776025
aF44.768359950183211
aF34.229602855735685
aF38.698625820240316
aF43.458115549412852
aF34.033243285657782
aF37.776428753107524
aF43.326116010979604
aF33.614531950971227
aF39.262391360035586
aF42.353304789306939
aF34.808005888556828
aF39.89818137230796
aF42.768008604435508
aF35.59128511178627
aF38.114167949511781
aF41.616880607141027
aF35.498907327441984
aF37.444800601104077
aF41.192056715517488
aF34.756503707616908
aF38.512838961094495
aF40.813461538541532
aF36.118066660272355
aF37.554902347876222
aF42.316823936431049
aF36.11907829904461
aF40.150931160206092
aF41.409407882234255
aF33.96556586327786
aF40.767055879351204
aF40.497382617371485
aF34.530115722026196
aF40.226395548731588
aF41.613217104839627
aF32.645175099492079
aF39.681143077374308
aF42.370306556226133
aF32.246032336048053
aF40.91157800448044
aF40.728820537844349
aF31.699907325822799
aF40.803225205326768
aF39.70658983712881
aF32.047940988863665
aF40.229702909664837
aF40.797990680405498
aF30.337482308738352
aF39.192552267406285
aF40.47750239716018
aF30.428776650948503
aF40.257395490638991
aF41.819005462543494
aF29.95637656783914
aF40.905668563944573
aF39.951843382435158
aF29.435242891866068
aF40.303319464753557
aF39.864587036083059
aF28.656353376012444
aF42.404615143902085
aF41.011617503953893
aF31.540069586540088
aF42.819585001555758
aF42.129690169399829
aF31.213820692790215
aF43.216126665636132
aF39.953898184313111
aF31.661063351642078
aF42.768210688627832
aF39.061489735473522
aF31.8902780308531
aF44.648388366397178
aF39.932302729134072
aF31.304122700236071
aF45.10581522493333
aF40.874312936543561
aF31.620174475619503
aF45.337330830797818
aF38.776303105585576
aF32.052761098407252
aF44.880766494276578
aF37.831601436480774
aF31.750571857256045
aF46.389290668102362
aF38.763726676593649
aF31.768128138211395
aF45.253776992071515
aF38.912990754594304
aF33.583977345367451
aF45.675459151694042
aF39.873199227258986
aF33.874967624491333
aF44.210165105419982
aF38.879619664128448
aF33.900323762139109
aF46.023163101105489
aF37.792847144792844
aF34.299340661659485
aF45.587303509805068
aF36.832225578799672
aF34.020053002245064
aF47.06955298227998
aF37.820339145525899
aF33.990883954259338
aF45.936699940406641
aF37.983744387067176
aF35.820055289360283
aF46.43709772698751
aF38.91873776766996
aF36.075523904314998
aF44.881343632122316
aF38.083890824942515
aF36.093558134108001
aF46.532677816503195
aF36.841389359809661
aF36.563071520246972
aF47.5039291382
aF36.688106536900001
aF36.328010559100001
aF46.4452171326
aF36.960857391399998
aF37.562934875499998
aF45.99395313459901
aF36.005395389796632
aF36.336362979381185
aF44.868818508385807
aF39.833078176790501
aF29.782299759435695
aF45.985349315617917
aF40.049408873526993
aF29.299962055348225
aF43.80760476504318
aF39.533953883836986
aF29.028059229513019
aF42.930656555236368
aF39.361425092099111
aF29.510125846372738
aF43.73019202784991
aF39.625248135475267
aF27.565596563000359
aF44.723556593798939
aF39.469767655649143
aF27.143255738867005
aF42.83361255201676
aF38.48747631626992
aF27.048635876231419
aF41.870900730262079
aF38.492834431767861
aF27.555486071817342
aF42.652682072047824
aF38.627475182479238
aF25.98349720775435
aF43.498315474250774
aF37.137962513722144
aF27.218755223115465
aF44.485472554755347
aF36.84303395171105
aF26.56336758557612
aF43.028996359607206
aF36.293823285186917
aF28.107067081221665
aF43.418155345071462
aF35.362333614107627
aF28.138094868993001
aF42.267520755556014
aF36.526360848446103
aF28.754047707634047
aF43.269286407125144
aF41.018056532740161
aF27.076807103600892
aF43.233201790715128
aF41.270127191925553
aF25.870547517890216
aF42.962490082461265
aF41.941587591444076
aF27.998086360948225
aF42.950263732241446
aF41.659549192263619
aF28.968870920843333
aF42.523884553149166
aF43.30406311760413
aF27.693768235371596
aF41.549144267082568
aF43.238916489622106
aF27.223132096015778
aF42.423826012702406
aF43.863015016430857
aF28.624282897882075
aF43.464673699893694
aF44.076387343852801
aF26.755048042193959
aF43.002063741198256
aF44.540015008205188
aF25.710382497986824
aF44.776975924052827
aF44.173652824647959
aF27.054347368031301
aF45.3896914255958
aF43.858140438741707
aF28.33821512993941
aF45.583338966850889
aF42.788509758396735
aF28.405438221932759
aF44.757570315109788
aF44.172208129595631
aF29.16664009606842
aF46.709981829856595
aF44.626661463738948
aF28.370911883258508
aF47.464933725674172
aF44.116828633156189
aF28.969508128233556
aF46.541450141842162
aF45.638387991029077
aF28.736247355434291
aF47.098697662399999
aF44.674533844000003
aF26.900600433299999
aF47.584270477300002
aF43.7417030334
aF26.613988876299999
aF47.749862670900001
aF45.513175964399998
aF26.6540908813
aF45.755840965109961
aF44.821179601112469
aF26.178916300909716
aF45.506326040770134
aF45.879908025496739
aF26.101929516460967
aF45.820682525599999
aF44.229972839399998
aF24.764446258500001
aF45.797698974600003
aF44.961532592799998
aF23.7786006927
aF45.833870442423184
aF42.897313636921574
aF24.64479783969356
aF45.853267071495999
aF42.333521224613008
aF25.487045576497675
aF45.795700073200003
aF42.206531524699997
aF23.351600647000001
aF46.673915862999998
aF42.477409362800003
aF22.765548706099999
aF45.821697235099997
aF40.688533782999997
aF23.603601455700002
aF46.776958465600003
aF40.409500122099999
aF24.048257827800001
aF45.02371835323526
aF40.400126234877717
aF24.286258509418285
aF45.692699432399998
aF39.888534545900001
aF22.305601119999999
aF46.815700530999997
aF39.665534973100002
aF21.510601043699999
aF47.794471740699997
aF40.0418968201
aF21.808008193999999
aF46.676700592000003
aF38.957534789999997
aF20.332601547199999
aF47.540958404500003
aF38.7305412292
aF19.708395004300002
aF45.414699554400002
aF38.534534454300001
aF19.948600768999999
aF45.3417015076
aF38.040824890099998
aF18.979568481400001
aF44.280696868900002
aF38.709533691399997
aF20.723600387600001
aF43.291328430199997
aF38.332866668699999
aF20.464044570900001
aF44.463699340799998
aF39.410533905000001
aF21.8876018524
aF43.605552576784874
aF39.593156690780305
aF22.518066952610166
aF44.582698821999998
aF42.6165351868
aF22.554601669299998
aF44.682697296100002
aF42.872531890899999
aF21.345600128200001
aF43.395438026730993
aF42.653452458449976
aF23.175524104005948
aF43.364246773366105
aF42.41507588306726
aF24.162992637133119
aF42.144813651545249
aF43.012766069091867
aF22.496800817397258
aF42.058549077455439
aF42.422652361998622
aF21.586414483402276
aF40.952423389888942
aF42.720990253701714
aF23.424593786987341
aF41.205007604517348
aF43.043255674360083
aF24.43527533945624
aF40.098946934991744
aF43.313602644061156
aF23.098206737894184
aF40.513520699382191
aF41.25128362434188
aF23.468439019405487
aF41.342868753488091
aF40.625211106335186
aF23.794925956750454
aF39.363969897538169
aF41.114978656182025
aF24.460889005949735
aF38.501336670815633
aF41.697465455239204
aF24.141769419856789
aF39.078325804730497
aF40.068115622530911
aF24.55096306198752
aF39.687860482689821
aF41.465148144422258
aF25.441463993452704
aF40.006735998401211
aF40.765116333930635
aF22.106472950008872
aF40.839112601458645
aF40.638496450182544
aF21.416001508475244
aF39.516846541912727
aF39.801962781650921
aF22.232211827777931
aF39.290640303465366
aF41.476247997593681
aF21.697176524020676
aF42.124031051677463
aF44.478719699608192
aF22.054022707194978
aF41.709697723399998
aF44.795532226600002
aF20.936601638799999
aF42.591553808975704
aF45.403140317955696
aF22.883434925922881
aF42.971866329554992
aF45.140381063006899
aF23.78837817317293
aF42.696697235099997
aF46.7745323181
aF22.4036006927
aF41.713600158699997
aF47.100059509300003
aF22.0635242462
aF43.158699035600002
aF47.701534271200003
aF23.500600814799999
aF44.090579986599998
aF47.2154960632
aF23.789499282800001
aF43.378372192400001
aF48.672481536900001
aF23.0566425323
aF42.248690301971088
aF47.870026508397594
aF24.72997900709986
aF42.178450586688378
aF46.925996765823612
aF25.264330098286898
aF42.865131134844361
aF48.905440990970945
aF25.673298997545352
aF42.990638732900003
aF49.867565155000001
aF25.176498413099999
aF42.22694658293009
aF49.047738897514321
aF26.540619443136833
aF43.836580911805562
aF48.54052171532409
aF26.002929373462422
aF40.828679928364998
aF48.306080596928737
aF24.363577704646168
aF40.326121676821934
aF47.503017409250944
aF23.827349867470364
aF40.264437519595596
aF48.522595909471377
aF25.270017827197268
aF40.869155883799998
aF49.192401885999999
aF23.737333297700001
aF43.6106987
aF46.875534057599999
aF21.1916007996
aF43.295700073200003
aF47.637535095200001
aF20.258600234999999
aF44.707698821999998
aF46.1295318604
aF21.155601501500001
aF45.0064163208
aF45.578762054400002
aF21.947759628299998
aF45.572700500499998
aF46.160533905000001
aF19.957601547199999
aF45.822246551500001
aF47.189399719199997
aF19.698263168299999
aF46.861698150599999
aF45.404533386200001
aF20.241600036600001
aF46.543186187700002
aF44.475849151600002
aF20.715095519999998
aF47.280399322500003
aF45.185913085899998
aF19.259258270299998
aF47.919696807900003
aF46.077533721899997
aF21.105600357099998
aF47.447784423800002
aF46.294544219999999
aF22.063882827800001
aF48.6818962097
aF45.310359954799999
aF21.241998672499999
aF48.563697814900003
aF47.338531494100003
aF20.562601089499999
aF48.199699401899998
aF47.784534454300001
aF19.450601577800001
aF49.438697814900003
aF47.908535003700003
aF21.294601440400001
aF44.838699340799998
aF45.593532562299998
aF18.747600555399998
aF44.963699340799998
aF46.120532989499999
aF17.610601425199999
aF44.1086997986
aF44.485534668
aF18.905601501500001
aF44.106132507300003
aF44.043907165500002
aF19.813926696799999
aF43.345699310299999
aF43.8615341187
aF17.8316001892
aF44.052997589100002
aF43.514106750499998
aF17.078523635900002
aF42.481697082499998
aF42.678531646700002
aF18.273601532000001
aF41.934486389200003
aF43.047992706300001
aF19.140871048000001
aF41.788593292199998
aF42.521709442099997
aF17.447095870999998
aF43.152698516800001
aF41.372531890899999
aF18.621601104700002
aF43.716625213599997
aF41.558643341100002
aF19.535631179799999
aF42.347991943399997
aF40.667182922400002
aF18.829034805300001
aF44.0867004395
aF40.783535003700003
aF17.555601119999999
aF45.051048278800003
aF41.290977478000002
aF17.530561447099998
aF44.243129730200003
aF39.713752746600001
aF17.694150924700001
aF43.411697387700002
aF40.996532440199999
aF16.275600433299999
aF42.414649963400002
aF40.836128234900002
aF16.2592983246
aF44.010700225800001
aF41.369533538799999
aF15.1536006927
aF45.329700469999999
aF41.532531738300001
aF15.1436004639
aF45.861759185799997
aF41.371589660600002
aF15.9868745804
aF45.7939224243
aF41.816600799600003
aF14.292775154099999
aF43.2537002563
aF41.572532653800003
aF14.0926008224
aF42.254219055199997
aF41.442024230999998
aF14.156697273300001
aF43.677062988300001
aF41.857532501199998
aF13.2210292816
aF42.424697876000003
aF44.894535064700001
aF17.168600082400001
aF42.200698852499997
aF44.840534210199998
aF15.9576005936
aF41.806697845499997
aF45.711532592799998
aF18.0166015625
aF41.983966827400003
aF45.629196167000003
aF19.007507324199999
aF40.814697265600003
aF46.691532135000003
aF17.567600250200002
aF40.318534851099997
aF46.3627243042
aF16.654472351100001
aF39.740699768100001
aF46.825534820599998
aF18.700601577800001
aF40.244564056400002
aF47.014717102100001
aF19.648456573499999
aF39.079849243200002
aF47.660564422599997
aF18.468009948700001
aF38.907699585000003
aF45.5225334167
aF18.809600830099999
aF38.4744262695
aF45.309677123999997
aF17.832324981700001
aF39.576747894299999
aF44.710556030299998
aF19.094497680700002
aF37.599697112999998
aF45.654533386200001
aF20.0146007538
aF38.579254065892897
aF45.578763070505197
aF21.540194127310265
aF39.280879898954431
aF46.410828033984998
aF21.580697490483132
aF37.921599490369729
aF45.627807023126046
aF22.406109751080347
aF39.13278249207341
aF44.641662546872809
aF21.561656788175366
aF41.381698608400001
aF48.053531646700002
aF17.2116012573
aF40.589698791499998
aF48.930534362800003
aF16.864601135299999
aF42.671699523900003
aF50.239532470699999
aF19.173601150500001
aF42.8873710632
aF49.296592712399999
aF19.464195251500001
aF42.190700530999997
aF51.175533294700003
aF20.174600601200002
aF41.9143180847
aF52.107673644999998
aF19.681827545200001
aF40.960697174099998
aF50.637535095200001
aF20.9386005402
aF41.331851959200002
aF49.6783599854
aF21.299613952600001
aF40.731952667199998
aF51.281055450399997
aF21.788103103600001
aF39.690700530999997
aF50.414531707800002
aF20.110601425199999
aF39.919540405299998
aF49.752441406199999
aF19.275516509999999
aF38.621700286900001
aF49.794532775900002
aF20.9616012573
aF38.3919754028
aF50.456306457499998
aF21.796695709200002
aF37.723834991499999
aF49.640544891399998
aF20.3630752563
aF38.9716072083
aF48.835708618200002
aF21.344118118299999
aF39.218700408899998
aF51.683532714800002
aF19.432600021399999
aF39.9977226257
aF52.050376892099997
aF18.764284133899999
aF38.316257476799997
aF51.475009918200001
aF18.857952117899998
aF39.001865387000002
aF52.439998626700003
aF20.1868152618
aF43.2537002563
aF51.561534881599997
aF21.185600280799999
aF43.010700225800001
aF52.4865341187
aF21.996601104700002
aF44.386699676500001
aF50.914531707800002
aF21.219600677500001
aF44.595474243200002
aF50.211578369100003
aF20.525074005099999
aF45.3746986389
aF51.157531738300001
aF22.2876014709
aF44.960269928000002
aF50.871761321999998
aF23.2543907166
aF46.661697387700002
aF50.348533630399999
aF22.045600891100001
aF47.118690490699997
aF50.691761016800001
aF21.1174545288
aF47.648696899400001
aF50.5245323181
aF23.192600250200002
aF47.192554473900003
aF50.181064605700001
aF24.121072769200001
aF48.547229766800001
aF49.940937042199998
aF22.9922103882
aF47.913516998299997
aF51.577709198000001
aF23.286371231099999
aF46.287696838400002
aF48.961532592799998
aF21.919601440400001
aF47.073108673100002
aF48.430889129599997
aF21.767446517900002
aF45.7456970215
aF52.613533019999998
aF22.415601730300001
aF45.8696975708
aF53.163532257100002
aF23.509601592999999
aF43.8696975708
aF55.114532470699999
aF24.809600830099999
aF44.336730957
aF54.4000892639
aF24.269647598300001
aF43.820697784399997
aF54.963531494100003
aF26.2676010132
aF42.901954650900002
aF55.3894348145
aF26.670856475800001
aF43.8546981812
aF53.452533721899997
aF26.603601455700002
aF44.495002746600001
aF52.904010772699998
aF25.912778854399999
aF44.146400451700003
aF53.223228454599997
aF27.628505706799999
aF42.434700012199997
aF52.901535034200002
aF26.417600631700001
aF41.904697418200001
aF52.622531890899999
aF25.176601409900002
aF42.510219573999997
aF52.729743957499998
aF24.276626586900001
aF40.5867004395
aF52.201534271200003
aF25.079601287799999
aF40.187107086200001
aF51.975444793699999
aF24.091009140000001
aF39.781700134300003
aF52.065532684300003
aF26.200601577800001
aF38.734745025599999
aF51.773078918499998
aF26.1202526093
aF40.3367004395
aF52.310531616200002
aF27.4406013489
aF39.73429294674996
aF52.19700842596761
aF28.329620274664592
aF41.643699646000002
aF52.713531494100003
aF27.553600311299999
aF42.076156616200002
aF52.890842437700002
aF28.5383052826
aF44.935699462899997
aF55.714534759499998
aF26.945600509599998
aF46.105697631799998
aF55.576534271200003
aF26.609600067100001
aF45.493698120099999
aF55.210533142099997
aF30.179601669299998
aF44.542102813699998
aF55.118778228799997
aF29.853803634599998
aF46.008697509800001
aF54.206531524699997
aF31.077600479099999
aF47.044483184800001
aF54.000686645499997
aF30.807641983
aF45.962699890099998
aF54.645534515400001
aF32.551601409900002
aF44.930755615199999
aF54.846504211400003
aF32.839355468800001
aF46.366722106899999
aF53.852085113500003
aF33.180335998499999
aF46.557983398399998
aF55.549438476600002
aF32.6807823181
aF45.203697204599997
aF52.915534973100002
aF30.9606018066
aF44.031700134300003
aF52.923534393300002
aF30.602600097700002
aF45.8696975708
aF51.841533660899998
aF31.3156013489
aF46.860317230200003
aF51.9092979431
aF31.500495910600002
aF45.226699829099999
aF50.5235328674
aF31.433601379399999
aF44.148280796160904
aF50.600764492445229
aF31.303698916054113
aF45.783699035600002
aF49.527534484900002
aF30.3926010132
aF46.872962951700003
aF49.564144134499998
aF30.408754348799999
aF45.328950258528401
aF48.08349552279418
aF30.703284016353148
aF44.244753108665805
aF48.001995360133385
aF30.662366033791599
aF45.758827127481162
aF47.377749230946868
aF29.99823717139531
aF45.668445181891705
aF47.762829752220675
aF31.689100148424917
aF45.427700042700003
aF49.935531616200002
aF28.9566001892
aF44.346983472508832
aF49.873108779653371
aF28.823428178963535
aF45.720233917199998
aF50.979068756099998
aF28.840183258100001
aF46.097698211699999
aF49.101531982399997
aF27.885601043699999
aF45.800668249133381
aF48.056222000156041
aF27.951187375551502
aF45.790904998800002
aF49.457592010500001
aF26.9021377563
aF47.1800613403
aF49.1877555847
aF27.981294632000001
aF45.4976997375
aF50.038532257100002
aF32.848602294899997
aF46.685699462899997
aF49.833534240699997
aF33.178600311300002
aF44.503314119127985
aF49.903891202493206
aF33.724515784949162
aF43.55007245505859
aF50.107268617183486
aF33.450917722549669
aF44.737213158278806
aF49.354104758206503
aF35.062920452140226
aF45.627330780000001
aF49.791698455800002
aF35.517341613799999
aF43.549275562494358
aF49.687365875359717
aF35.962470088085162
aF42.645004868795567
aF49.192593914143501
aF35.606036730903597
aF43.761996369841398
aF49.366618356493582
aF36.982124335792726
aF43.408145904500003
aF50.761169433600003
aF35.950637817400001
aF45.007208159402261
aF47.856718337319904
aF34.972146874128136
aF44.15632473503333
aF47.108385803372911
aF34.485541964954287
aF46.187262297239961
aF47.437058440442762
aF35.423092518993137
aF46.888523101799997
aF48.1109542847
aF35.742870330800002
aF46.546764639934864
aF46.018044578490937
aF35.414997294839694
aF46.397633726052931
aF45.634846336334455
aF34.407271212875351
aF48.043697357200003
aF45.929534912100003
aF35.694599151600002
aF48.516151428199997
aF46.471920013400002
aF34.875637054400002
aF48.227554321299998
aF46.4551239014
aF36.631645202599998
aF48.6236991882
aF44.536533355700001
aF35.776599883999999
aF47.852988750765228
aF43.550709546822148
aF35.628565649042351
aF49.867698669399999
aF44.400531768800001
aF35.950599670400003
aF45.678145915294458
aF45.217933558385326
aF36.413685961006571
aF45.72238050548134
aF45.470931253539248
aF37.623344708384195
aF44.867204631545818
aF44.246843042808472
aF35.947592994511581
aF44.723051125409526
aF43.808367609506156
aF34.566131928709353
aF45.688570096519705
aF43.576425653596417
aF34.115182768239762
aF44.212311542050642
aF44.580911557573813
aF33.99285037401377
aF43.86137583601122
aF42.552464743781151
aF34.613752857698927
aF44.495993376193461
aF41.676139471930114
aF34.740145707161489
aF43.236868450329347
aF42.460932472644458
aF33.729939747585917
aF43.020240254848076
aF42.763077263030524
aF35.865606190924417
aF42.673696680534313
aF41.817691341120984
aF36.274155376448157
aF42.177887825711586
aF43.412931777811274
aF35.636121279560548
aF43.96993574060572
aF43.491252459051687
aF36.813676944407568
aF43.395062030535719
aF44.175928612069143
aF37.432534841812213
aF44.698874190083018
aF42.525972842014113
aF37.752802328596651
aF44.072793086880466
aF42.023156289858868
aF38.687504297801809
aF45.994036221453911
aF42.264481273658511
aF37.548251245074496
aF46.484817362731306
aF42.732813117396333
aF36.785738171115369
aF46.796699523900003
aF41.4925346375
aF38.489601135299999
aF46.171121023948643
aF40.71250518727242
aF38.921717879306058
aF47.950698852499997
aF40.822532653800003
aF37.737602233899999
aF48.601119995099999
aF41.587345123299997
aF37.3131980896
aF48.522632598900003
aF40.201759338400002
aF38.427257537800003
aF47.550727844199997
aF40.201030731199999
aF36.936443328899998
aF47.363697051999999
aF42.314533233600002
aF39.629600524899999
aF47.864700317400001
aF41.7365341187
aF40.597599029500003
aF47.383697509800001
aF43.655532836900001
aF39.538600921600001
aF47.008293151899998
aF44.118110656699997
aF38.7230072021
aF48.002696991000001
aF44.480533599899999
aF40.583599090600003
aF48.871059417700003
aF43.959548950200002
aF40.986865997300001
aF48.455699920699999
aF45.831531524699997
aF40.0345993042
aF47.592723846399998
aF46.258335113500003
aF39.5235099792
aF48.704589843800001
aF46.445068359399997
aF40.900470733600002
aF49.634696960399999
aF45.794532775900002
aF39.087600707999997
aF49.656627655000001
aF44.827110290500002
aF38.5858917236
aF49.494525909399997
aF46.583396911599998
aF38.348583221399998
aF50.946697235099997
aF46.014533996600001
aF39.819599151600002
aF51.017700195300002
aF45.809532165500002
aF41.046600341800001
aF51.918697357200003
aF46.385532379200001
aF39.1436004639
aF47.051700592000003
aF44.693534851099997
aF41.7516021729
aF47.527698516800001
aF44.8815345764
aF42.897602081300001
aF45.7496986389
aF44.676532745400003
aF41.522602081300001
aF45.3556518555
aF44.487857818599998
aF40.6119804382
aF44.821697235099997
aF44.998535156199999
aF42.6396026611
aF45.195770263699998
aF45.845161437999998
aF43.2152633667
aF43.408699035600002
aF45.316532135000003
aF42.168601989700001
aF42.768344879200001
aF45.423274993900002
aF43.044189453100003
aF43.368698120099999
aF46.613533019999998
aF41.343601226799997
aF44.008499145499997
aF46.507381439200003
aF40.467536926299999
aF42.348693851876583
aF46.81430970751039
aF41.031539506513461
aF43.723869323700001
aF47.443977355999998
aF41.9537773132
aF42.783282335488131
aF44.216748839914835
aF41.294278324004459
aF42.769399378100566
aF43.266487922291319
aF41.827512629542873
aF41.753815868550468
aF44.481564818881353
aF41.05281628959419
aF43.343728529513584
aF44.096355105681674
aF40.367293357379104
aF44.807697296100002
aF43.810531616200002
aF43.589599609399997
aF45.0016975403
aF42.654533386200001
aF43.174602508500001
aF44.554698944099997
aF44.085533142099997
aF44.864601135299999
aF44.467437744100003
aF45.034412383999999
aF45.199436187700002
aF44.433700561499997
aF42.987533569299998
aF45.838600158699997
aF45.169456481899999
aF42.201950073200003
aF45.666503906199999
aF44.677700042700003
aF43.590534210199998
aF47.220600128199997
aF43.942855835000003
aF44.372692108199999
aF47.411209106400001
aF44.584598541299997
aF42.812747955299997
aF47.978546142600003
aF45.6800117493
aF44.017082214399998
aF47.259666442899999
aF43.075698852499997
aF42.341533660899998
aF45.747600555399998
aF42.9856987
aF41.182533264200003
aF46.1396026611
aF42.026699066200003
aF43.055534362800003
aF45.2845993042
aF42.171768188500003
aF44.009452819800003
aF44.986118316700001
aF40.671699523900003
aF42.527534484900002
aF45.2716026306
aF40.738674163799999
aF41.444530487100003
aF45.375125885000003
aF39.802700042700003
aF43.074531555199997
aF46.4066009521
aF39.718742370599998
aF44.157104492199998
aF46.3112449646
aF38.810050964399998
aF42.627494812000002
aF46.352687835700003
aF40.259555816700001
aF42.829109191900002
aF47.365322112999998
aF40.030696868900002
aF42.815532684300003
aF43.922599792500002
aF40.068698883099998
aF43.977531433099998
aF43.447601318399997
aF39.496035786641201
aF41.790164739960844
aF43.250400731712681
aF39.578643798800002
aF40.862384796100002
aF43.640510559100001
aF38.889080863954888
aF41.887431390620129
aF41.905262153134053
aF39.388746059598809
aF42.692197833443473
aF41.367721890636822
aF39.172814204848748
aF40.59913396071282
aF41.114150325986905
aF38.820844989702564
aF40.71143897839432
aF40.091826771152228
aF40.251004325485425
aF40.433403962804007
aF41.081693097761352
aF38.55184477236179
aF39.47421251792845
aF41.704885833194091
aF38.78491037912346
aF38.685681750538045
aF41.185736896061975
aF37.387179146998356
aF42.240531147784239
aF41.952266166384405
aF36.78313791526385
aF42.200240173322072
aF43.028960685088734
aF36.75740671275171
aF42.618408595403118
aF40.823481562482954
aF37.286647095370789
aF42.593759266825835
aF39.957366450166802
aF35.314055748080698
aF42.95985655015987
aF40.767406902658557
aF35.163469179862602
aF43.865078116636269
aF41.352048169837019
aF34.817759600004798
aF43.213906263781219
aF39.327987152727268
aF34.920643640921412
aF42.289729725057342
aF38.765200313259292
aF33.753542591227841
aF43.452411263360361
aF39.365542320981532
aF35.531075502178133
aF44.340473241136223
aF38.565512428273266
aF35.333534422248121
aF45.294727903788655
aF39.055476166467514
aF36.60068333749367
aF44.156033744621752
aF38.578155864331492
aF35.065646568709234
aF44.402223168582296
aF37.100178101971387
aF35.214354158477484
aF43.431317853804153
aF36.629500586764969
aF34.006181930195318
aF44.652855992518113
aF37.058018004981889
aF35.872031035757345
aF45.438667791800725
aF36.316346812769567
aF35.774262772345878
aF46.415121305721073
aF36.795462386943782
aF36.92765904249876
aF45.154286371012098
aF36.337585777289384
aF35.428894518749303
aF45.532270138347613
aF34.909836965945814
aF34.441273408864213
aF45.769704138875035
aF34.808605725048828
aF35.969965339771619
aF46.233951848573405
aF34.417451060979175
aF35.576684942664414
aF44.660835498606183
aF34.394519960571188
aF34.501816080414407
aF41.799596494583731
aF41.372210943195377
aF34.69786277550056
aF40.661806236558263
aF40.953817377363166
aF33.572908608221567
aF42.030833735327128
aF42.317332514219387
aF32.895889373554034
aF40.92948153312576
aF42.991931696108473
aF33.565769195599998
aF40.250919342000003
aF43.537143707299997
aF32.325060292433513
aF40.362300811361337
aF42.256109966923439
aF31.956699371300001
aF41.6175346375
aF43.955600738500003
aF32.487792968800001
aF41.877182006799998
aF44.871364593499997
aF31.087835311900001
aF41.006759643599999
aF44.2008247375
aF31.512699127200001
aF42.959533691399997
aF43.118602752699999
aF31.066078185999999
aF43.845993042000003
aF43.568958282499999
aF30.884793823861077
aF42.650417110857752
aF42.28681265279949
aF32.886142161624669
aF43.310586015080197
aF42.567497205921178
aF32.758000688696448
aF43.83257998301233
aF41.622442690037133
aF33.566699981699998
aF44.293533325200002
aF43.523601532000001
aF33.033699035600002
aF45.396533966100002
aF43.746601104699998
aF34.795700073200003
aF44.0065345764
aF44.025600433299999
aF35.2395133972
aF43.106647491499999
aF43.910118103000002
aF35.507698059100001
aF45.038532257100002
aF44.773601532000001
aF34.916614532499999
aF45.424354553199997
aF45.604179382300003
aF36.788700103799997
aF44.420532226600002
aF45.331600189200003
aF37.395488739000001
aF44.037818908699997
aF44.510967254599997
aF37.351428985600002
aF45.1789245605
aF45.875915527300002
aF36.5343856812
aF43.603324890099998
aF46.0065803528
aF35.847698211699999
aF46.213531494100003
aF43.865600585899998
aF36.164138857352029
aF46.007721443410787
aF42.685307718464742
aF35.8726997375
aF47.430534362800003
aF44.4095993042
aF35.655696868900002
aF47.7415351868
aF45.840599060099997
aF36.327342987100003
aF47.143024444600002
aF46.456050872799999
aF34.623100280800003
aF47.525177002
aF46.114517211900001
aF35.968700408899998
aF49.205532073999997
aF45.903602600100001
aF37.027191162100003
aF49.348823547400002
aF46.120773315400001
aF35.371162414600001
aF49.678569793699999
aF46.682888030999997
aF35.605697631799998
aF49.750534057599999
aF44.538600921600001
aF36.139606475800001
aF50.674114227300002
aF44.314895629900001
aF34.534255981400001
aF49.913532257100002
aF44.422218322799999
aF36.075698852499997
aF48.6265335083
aF43.583599090600003
aF35.446674346899997
aF48.502983093300003
aF42.702033996600001
aF37.513698577900001
aF48.886531829799999
aF43.148601532000001
aF37.743698120099999
aF49.823532104500003
aF42.365600585899998
aF38.464698791499998
aF48.122531890899999
aF43.676601409900002
aF38.222103118900002
aF47.338535308799997
aF44.2653236389
aF39.882698059100001
aF48.435531616200002
aF43.486602783199999
aF40.143512725800001
aF49.3383102417
aF44.038936614999997
aF40.7537002563
aF47.271533966100002
aF44.004600524899999
aF40.606224060099997
aF46.416725158699997
aF43.344558715799998
aF41.773796081500002
aF47.640502929699998
aF43.897987365699997
aF40.5166969299
aF46.845531463599997
aF45.446601867699997
aF39.330699920699999
aF46.8805351257
aF45.868602752699999
aF41.489700317400001
aF46.444534301799997
aF46.089599609399997
aF40.290699005100002
aF48.7575340271
aF42.044601440400001
aF41.071697235099997
aF49.690532684300003
aF41.801601409900002
aF39.81311233826181
aF47.998639339358327
aF41.045489238484677
aF39.234515059586059
aF47.199074569842786
aF41.284539244873301
aF40.239719561914541
aF48.166854069384868
aF39.640876421017985
aF41.326062806235363
aF48.22923541690772
aF39.651511996650257
aF39.838729704747088
aF46.926856528493481
aF38.805879104006145
aF40.116604705659924
aF46.041837695533019
aF39.38078759480014
aF38.322519344746645
aF46.855226446896395
aF38.552530494143269
aF38.001561010262343
aF47.66166956964593
aF37.891756510396966
aF38.091178767009254
aF45.902406430112073
aF38.081232778326282
aF37.776522162879452
aF46.917106788347084
aF39.494237715003599
aF40.565926360845388
aF46.819983828718087
aF37.448246514745399
aF40.207706688743272
aF45.929165946638726
aF36.929470851929253
aF40.33376250099316
aF47.684908591630105
aF36.827035218783244
aF42.086965550368909
aF46.693979167887427
aF37.58569397930529
aF42.329715560707761
aF45.903161930064925
aF38.294805416143127
aF42.51829961332944
aF46.45040839532615
aF36.614753222972489
aF42.517822714815701
aF47.630175076087696
aF37.935021020661544
aF39.753431489520281
aF49.481860237230634
aF39.016385211230663
aF40.419257465589801
aF50.041915471968395
aF38.145269833145278
aF38.627315388554791
aF50.016532848306234
aF39.493694510655594
aF38.186234646694885
aF49.562716697543024
aF40.284694397644842
aF38.135700225800001
aF51.332534789999997
aF39.088600158699997
aF38.326014362525974
aF51.469845897816711
aF38.023088677618667
aF36.612697601299999
aF51.415534973100002
aF39.311599731400001
aF36.3525619507
aF50.9287834167
aF40.251548767099997
aF36.251426696800003
aF52.443855285600002
aF39.323398590099998
aF35.844082034669341
aF50.684500406132493
aF38.223748816322775
aF35.331209741176309
aF49.393497985917371
aF38.457108275132811
aF35.460950410389437
aF48.928411926424126
aF39.423515943868011
aF34.6484907578118
aF48.708502969447729
aF37.435400741994563
aF34.233657281627842
aF47.728979341363733
aF37.621056451970205
aF34.484849385542724
aF49.306884425132331
aF36.174078533227835
aF33.962906797016387
aF48.778672374283047
aF35.388293892753779
aF34.981097787909718
aF50.601373581698141
aF35.941535660238678
aF34.841728964563067
aF51.064112026747217
aF34.973686604383971
aF35.659135589436865
aF51.288470832201654
aF36.965517106779728
aF36.046588377310357
aF52.27925285735801
aF36.784355484988929
aF38.882698059100001
aF52.457534789999997
aF39.800601959200002
aF39.216697692899999
aF53.468532562299998
aF39.203601837199997
aF39.172698974600003
aF52.262535095200001
aF41.098602294899997
aF38.774326324500002
aF51.476043701199998
aF41.591381073000001
aF39.976699829099999
aF53.206531524699997
aF41.847599029500003
aF39.632072448700001
aF54.238479614299997
aF41.781143188500003
aF40.039699554400002
aF52.777534484900002
aF43.337600707999997
aF40.318649292000003
aF51.7252845764
aF43.392917633099998
aF41.062698364299997
aF53.6115341187
aF44.085601806600003
aF40.784152984599999
aF54.663932800300003
aF44.031116485600002
aF41.094692230200003
aF53.298244476299999
aF45.129116058299999
aF42.0452957153
aF53.472484588599997
aF43.634750366200002
aF38.631698608400001
aF52.828533172599997
aF43.955600738500003
aF38.330406189000001
aF53.874538421600001
aF44.012119293200001
aF37.955986022899999
aF52.291809082
aF43.2896881104
aF38.573699951199998
aF52.210533142099997
aF45.339599609399997
aF39.248851776099997
aF52.747058868400003
aF46.006240844700002
aF37.556072235099997
aF52.275478362999998
aF45.724723815899999
aF38.874435424799998
aF51.164329528800003
aF45.283809661900001
aF41.365699768100001
aF53.332534789999997
aF41.221599578899998
aF41.871700286900001
aF54.458534240699997
aF41.030601501500001
aF41.960697174099998
aF52.200534820599998
aF40.847599029500003
aF41.517559051500001
aF51.309242248499999
aF41.018848419199998
aF43.283699035600002
aF52.208534240699997
aF40.228599548299997
aF43.942348480200003
aF52.8043861389
aF40.860454559300003
aF43.861698150599999
aF50.804534912100003
aF40.110599517799997
aF43.217861175499998
aF50.198375701899998
aF39.473304748499999
aF44.858909606899999
aF50.857124328600001
aF39.673675537100003
aF43.922607421899997
aF50.3517684937
aF41.100246429400002
aF43.2486991882
aF52.854534149199999
aF38.830600738500003
aF44.200698852499997
aF53.546531677200001
aF38.480602264399998
aF42.200698852499997
aF52.6175346375
aF38.0345993042
aF41.483886718800001
aF51.972438812299998
aF38.334819793699999
aF42.091697692899999
aF53.201534271200003
aF36.701599121100003
aF42.9944419861
aF52.958656310999999
aF36.141098022500003
aF40.886699676500001
aF52.663532257100002
aF35.940601348900003
aF39.974266052200001
aF52.906955719000003
aF36.484947204599997
aF40.850017547599997
aF53.116718292199998
aF34.949954986599998
aF40.973830511311654
aF51.581671957504604
aF35.835918177670742
aF42.035697937000002
aF54.723533630399999
aF36.821601867699997
aF42.702697753899997
aF55.462532043499998
aF36.093601226799997
aF41.261699676500001
aF55.217533111599998
aF37.788600921600001
aF40.671352386499997
aF54.611560821499999
aF38.340312957800002
aF41.157699585000003
aF56.672534942600002
aF37.996601104699998
aF40.926368713400002
aF57.177680969199997
aF37.058830261200001
aF40.0156974792
aF56.9035339355
aF38.965599060099997
aF40.236869812000002
aF56.411281585700003
aF39.912631988500003
aF39.891433715799998
aF57.973388671899997
aF39.133129119899998
aF39.096214294399999
aF56.492317199699997
aF38.5490112305
aF42.4856987
aF57.243534088099999
aF38.445602417000003
aF42.966697692899999
aF58.261531829799999
aF37.944599151600002
aF33.165699005100002
aF58.683532714800002
aF35.348602294899997
aF33.813831329300001
aF58.989154815699997
aF34.636829376199998
aF32.063697814900003
aF57.800533294700003
aF34.952602386499997
aF31.3412761688
aF57.619098663300001
aF35.7483940125
aF31.332698822000001
aF58.3815345764
aF33.713600158699997
aF32.078037262000002
aF58.714992523200003
aF32.9915351868
aF30.4416980743
aF57.340534210199998
aF33.073600769000002
aF29.695758819600002
aF57.0069084167
aF33.794963836699999
aF29.940832138099999
aF57.773105621299997
aF32.207508087199997
aF31.045412063600001
aF56.490230560299999
aF32.756401062000002
aF30.565698623700001
aF59.661533355700001
aF34.079601287800003
aF29.770561218299999
aF59.385723114000001
aF34.772266387899997
aF31.262802124
aF60.335643768300002
aF34.577320098900003
aF29.964698791499998
aF60.357532501199998
aF32.8706016541
aF29.267089843800001
aF59.684158325200002
aF32.372596740699997
aF29.435792923000001
aF61.254512786900001
aF33.192760467500001
aF30.759330749499998
aF60.634078979500003
aF32.177650451700003
aF32.6256980896
aF56.431533813500003
aF34.6366004944
aF33.680698394799997
aF56.360534668
aF34.0216026306
aF31.9786987305
aF55.385532379200001
aF35.094600677499997
aF31.2034282684
aF55.510143280000001
aF35.729839325
aF32.348697662399999
aF54.021533966100002
aF34.709602355999998
aF33.303787231400001
aF54.0404129028
aF34.184673309300003
aF32.438407897899999
aF53.405044555700002
aF35.604026794399999
aF31.288698196399999
aF53.414531707800002
aF33.791599273700001
aF30.091699600199998
aF53.555534362800003
aF34.0116004944
aF31.783699035600002
aF52.699531555199997
aF32.735599517799997
aF32.787419067444681
aF52.584256622273287
aF32.638366884445325
aF30.892658462255294
aF52.020758750316887
aF31.789175316564318
aF29.845754623400001
aF52.303268432599999
aF31.981542587300002
aF31.241699218800001
aF52.437534332299997
aF30.357601165799998
aF32.233340480474752
aF52.04947132916724
aF30.120454345206362
aF30.538814544699999
aF51.965065002400003
aF29.6714305878
aF31.268699646000002
aF53.955532073999997
aF30.099601745600001
aF32.0568962097
aF54.414730071999998
aF30.696247100800001
aF31.541698455799999
aF54.209533691399997
aF28.607601165799998
aF30.753616333
aF53.7509994507
aF28.0102977753
aF31.561937332199999
aF55.2829017639
aF28.4189929962
aF32.503311157200002
aF53.774982452400003
aF28.334531784100001
aF29.994699478099999
aF54.685531616200002
aF30.507600784299999
aF29.822261810299999
aF54.547599792500002
aF31.574998855600001
aF30.099439620999998
aF55.748733520499997
aF30.2914123535
aF29.149877548199999
aF54.283138275100001
aF29.9486255646
aF31.015972562694934
aF50.509419022369435
aF31.962442470647652
aF32.120793199758666
aF49.965419625026087
aF31.903879708309095
aF29.89046299497306
aF49.830748661931921
aF32.162735081847309
aF29.01112696513929
aF50.337608160408415
aF32.145091082216268
aF29.854055609677875
aF48.410855412648658
aF32.529106333483568
aF30.771152631876404
aF47.929691612973478
aF32.190752041706325
aF29.757223364048425
aF48.26370899934782
aF34.057642703113792
aF29.395180530573228
aF49.19408726850186
aF34.496777737520532
aF29.04188653344708
aF47.485403687912161
aF34.325760288460309
aF31.123114018707131
aF47.912440577356421
aF34.657085945677281
aF31.866496570708826
aF48.62038559113752
aF34.2888668193876
aF31.064247992047871
aF48.030164520401762
aF35.736794787462379
aF31.584232982128928
aF46.484671099689095
aF34.342091391187097
aF30.768666948566185
aF45.630134736855183
aF33.914360957858143
aF32.775957040469883
aF46.188288282248379
aF34.572043006114271
aF28.715817420298993
aF47.653394982862878
aF31.856318875788286
aF27.681475480394909
aF48.22045629096371
aF31.521346616619169
aF28.900263530279016
aF46.348448514829151
aF31.691870574673082
aF29.773182491681656
aF45.936327762300259
aF32.010781562872907
aF27.872879251395258
aF45.429459358834279
aF31.203236704027891
aF26.980840945306504
aF45.995219483078152
aF30.937683420218203
aF28.367902944271847
aF44.731057579697442
aF29.929584343360379
aF27.509003408303897
aF44.29469857015772
aF29.424917954729931
aF28.799612918882268
aF45.467880722537096
aF29.254448061821034
aF29.394519994429633
aF43.634994326228266
aF30.22227592123032
aF30.449592386397292
aF43.926782646208238
aF30.827959785979452
aF29.191592217262073
aF42.460218402231597
aF29.840110022211729
aF27.439018306370819
aF44.412186975144635
aF32.265534578882047
aF26.576318337280838
aF43.593370525544699
aF31.981189644280381
aF28.043257581241431
aF44.424652720866867
aF33.459295273560329
aF28.750350963884717
aF45.131241360972005
aF33.630323221892731
aF27.918665825548416
aF43.342545465028614
aF34.442461823606841
aF27.225277425812415
aF42.594669977508048
aF34.057738984762182
aF29.271088214867827
aF42.651810649710676
aF34.610137317013844
aF29.11845289791486
aF41.724975924607278
aF35.160070511405571
aF29.685811830993643
aF42.42586386565673
aF33.628457567185848
aF30.187092028849754
aF43.460203833166602
aF35.319330402046411
aF30.366511386512212
aF44.2610906705468
aF34.77622375640302
aF27.395427554741119
aF43.784668607983562
aF35.808460510392379
aF27.674125863277421
aF44.891390637769021
aF36.274495193713598
aF26.708328872034851
aF42.879995162613973
aF36.508243774993268
aF26.459022321958845
aF42.006027444794107
aF36.048893417163377
aF26.305703781985819
aF43.076182218573415
aF37.905445416126966
aF25.6863288879
aF43.967071533199999
aF37.973945617699997
aF25.494699478099999
aF41.862533569299998
aF38.3936004639
aF26.091629028300002
aF40.967102050800001
aF38.220470428500001
aF25.3329944611
aF41.989414215099998
aF39.464046478299998
aF24.144699096699998
aF41.719532012899997
aF37.687599182100001
aF23.491760253900001
aF42.458412170400003
aF38.152179717999999
aF24.226123809800001
aF41.927116394000002
aF36.620651245099999
aF23.523698806799999
aF40.336532592799998
aF37.869602203399999
aF24.155698776200001
aF39.4035339355
aF38.377601623499999
aF22.295698165899999
aF40.212532043499998
aF37.367599487299998
aF21.809062957799998
aF39.330760955800002
aF37.4435424805
aF21.857122421300001
aF41.0008811951
aF36.913440704300001
aF27.525614543680422
aF43.313907485958893
aF38.81065762425601
aF27.580698013300001
aF44.318534851099997
aF39.529602050800001
aF28.542697537595522
aF42.445945693347873
aF38.730028935932687
aF28.43792671270565
aF41.632377569376104
aF38.129071661800005
aF29.763795948625411
aF42.568846659718027
aF39.52534565571375
aF29.482096651459731
aF42.52404604845426
aF40.574561847136259
aF30.695850088182109
aF41.389832377430977
aF39.213912283481164
aF30.949074740611671
aF41.379411889524739
aF38.152119874158629
aF31.613876359560798
aF41.477446640284029
aF39.795628685679155
aF30.207324434100546
aF40.451586274198824
aF39.470158478719405
aF30.484463255307958
aF43.905830550570201
aF39.294166407623209
aF30.893160456364832
aF44.562796947905689
aF40.251621351930432
aF30.615858439650182
aF44.32751334380081
aF38.037976703009299
aF30.253028606556711
aF43.753401695671613
aF37.281787044837003
aF31.28222468032202
aF45.569021204303965
aF37.674575010822714
aF32.247414488979381
aF45.622649324180188
aF38.176247181011078
aF31.452538865453281
aF45.55264537976862
aF36.607620553674984
aF30.48946562218341
aF46.824530188189343
aF38.028717177726818
aF31.094428586425057
aF47.777028790618793
aF38.508089968783985
aF29.15618410120673
aF46.828931432385872
aF37.902538852992663
aF28.700238548447381
aF46.03501023239135
aF37.459243207424045
aF28.3196983337
aF47.925533294700003
aF38.429599762000002
aF28.6667003632
aF48.886734008799998
aF38.050411224400001
aF26.8226985931
aF47.7365341187
aF38.066600799600003
aF26.5328063965
aF46.700428008999999
aF38.241382598900003
aF25.9766979218
aF48.650531768800001
aF38.931602478000002
aF26.265714645399999
aF49.686916351299999
aF38.757011413599997
aF24.9245624542
aF48.5197372437
aF38.6786155701
aF26.1308250427
aF48.402889251700003
aF39.981845855700001
aF26.6016979218
aF47.943534851099997
aF36.584602355999998
aF26.760107040400001
aF49.009197235099997
aF36.419166564900003
aF27.368639609929875
aF47.414180787445225
aF36.022679036662112
aF25.263698577900001
aF47.536533355700001
aF36.004600524899999
aF24.468948364300001
aF48.101409912100003
aF36.491825103799997
aF25.252729415899999
aF47.7439346313
aF34.9345703125
aF25.104776382400001
aF46.470825195300002
aF36.169254303000002
aF28.541698455799999
aF48.106533050499998
aF39.914600372300001
aF28.717699050899999
aF49.249534606899999
aF40.425601959200002
aF28.581699371300001
aF47.009532928500001
aF40.693599700900002
aF28.3742427826
aF46.090480804400002
aF40.3297309875
aF28.850698471099999
aF47.145534515400001
aF42.1366004944
aF28.1641578674
aF47.858776092500001
aF42.592723846399998
aF28.646697998
aF45.7675323486
aF42.804599762000002
aF27.666551590000001
aF45.3849487305
aF42.519924163799999
aF29.4197502136
aF45.0887718201
aF42.4443588257
aF28.7296981812
aF45.871532440199999
aF44.322601318399997
aF28.738855361900001
aF44.878780364999997
aF44.7725563049
aF29.662044525100001
aF46.384979248
aF44.557559967000003
aF27.581699371300001
aF46.659534454300001
aF44.913600921600001
aF26.440698623700001
aF46.364532470699999
aF44.580600738500003
aF27.896697998
aF47.598533630399999
aF45.795600891100001
aF27.167312622099999
aF48.1534156799
aF46.220108032200002
aF28.8645248413
aF47.754428863500003
aF46.038730621299997
aF30.2376995087
aF47.701534271200003
aF42.383602142299999
aF30.394699096699998
aF48.566532135000003
aF43.260601043699999
aF31.236698150599999
aF47.304534912100003
aF41.590599060099997
aF31.062634787969213
aF46.593487899660339
aF40.892995065880569
aF32.578697204599997
aF47.795532226600002
aF41.7646026611
aF32.908515930199997
aF47.641895294199998
aF42.792079925499998
aF33.512109246689775
aF47.010929305555528
aF40.831519826277429
aF33.240438714638927
aF47.182275718836543
aF39.792178082980691
aF34.539534290591618
aF47.337214857062321
aF40.983475878508386
aF33.448480380488611
aF45.946816144716784
aF41.04887085879038
aF32.617698669399999
aF49.297534942600002
aF41.475601196299998
aF33.278697967500001
aF50.076534271200003
aF42.1595993042
aF31.8746986389
aF49.7575340271
aF40.459602355999998
aF31.367403030399998
aF49.134674072300001
aF39.847393035899998
aF31.840698242199998
aF51.174533844000003
aF40.176601409900002
aF32.861263275100001
aF51.555381774899999
aF40.137851715099998
aF31.1126995087
aF51.5225334167
aF38.863601684599999
aF30.1146297455
aF51.084434509300003
aF38.869014739999997
aF31.0026988983
aF53.019535064700001
aF38.7456016541
aF32.000453948999997
aF53.458335876500001
aF38.739654541
aF30.488611221300001
aF53.2746696472
aF37.818931579599997
aF30.4392871857
aF53.410861969000003
aF39.592670440699997
aF31.808698654200001
aF50.960533142099997
aF37.614601135299999
aF32.685009002699999
aF51.579986572300001
aF37.423660278299998
aF32.144496848033647
aF49.944301865212942
aF37.800206810847968
aF30.935998725072789
aF50.948700056032138
aF36.365336499051189
aF30.6147613525
aF51.958370208700003
aF36.158889770499997
aF31.518961075446075
aF50.591042554780827
aF35.518353613531836
aF30.068061828283927
aF50.308089287244627
aF36.520634619614007
aF31.175699234
aF51.907531738300001
aF41.361602783199999
aF31.7006988525
aF52.916534423800002
aF41.817600250200002
aF33.438697814900003
aF52.3975334167
aF44.197601318399997
aF32.895912170400003
aF52.090984344500001
aF43.402923584
aF34.6046981812
aF53.228534698499999
aF43.955600738500003
aF35.404571533199999
aF52.967105865500002
aF44.6483917236
aF35.1077003479
aF53.0065345764
aF42.5166015625
aF36.129264831500002
aF53.380737304699998
aF42.449741363500003
aF35.099445342999999
aF51.935810089100002
aF42.3126831055
aF34.283699035600002
aF53.685531616200002
aF41.549602508500001
aF34.626827239999997
aF53.524642944299998
aF40.6675720215
aF34.308700561499997
aF54.716533660899998
aF44.1525993347
aF35.259696960399999
aF55.476531982399997
aF44.299602508500001
aF28.170698165899999
aF55.014533996600001
aF37.694599151600002
aF27.456699371300001
aF54.717533111599998
aF38.946601867699997
aF26.755552291899999
aF55.518630981400001
aF39.180557251000003
aF28.164995193500001
aF54.6041183472
aF39.767303466800001
aF26.765699386600001
aF53.427532196000001
aF38.603599548299997
aF25.746387481700001
aF53.644920349099998
aF38.284465789800002
aF26.740993499799998
aF52.791782379200001
aF39.488651275599999
aF27.5546989441
aF52.787532806400002
aF37.509601592999999
aF26.853269576999999
aF52.184173584
aF36.933361053500001
aF28.404264450100001
aF52.172298431400002
aF37.805950164800002
aF28.036699294999998
aF53.973533630399999
aF36.666599273700001
aF28.9897022247
aF53.873199462899997
aF36.147163391100001
aF26.9476985931
aF54.324531555199997
aF35.663600921600001
aF25.8706989288
aF54.8675346375
aF35.932601928700002
aF27.1916980743
aF53.952533721899997
aF34.3885993958
aF28.147010803200001
aF53.736579894999998
aF34.141933441200003
aF26.185699462900001
aF53.900531768800001
aF33.348602294899997
aF25.183794021600001
aF53.926589965799998
aF33.777095794700003
aF26.317699432400001
aF55.0055351257
aF32.286602020300002
aF27.253656387300001
aF54.878681182900003
aF31.7425498962
aF25.161699294999998
aF54.914531707800002
aF31.324600219699999
aF24.225347518900001
aF55.041763305700002
aF31.8678855896
aF25.253061294599998
aF55.696704864499999
aF30.570966720600001
aF25.1691894531
aF53.939205169700003
aF30.838001251200001
aF26.436698913600001
aF56.415534973100002
aF32.895599365199999
aF25.513000488300001
aF56.630828857399997
aF33.432750701899998
aF27.271501541100001
aF56.4117126465
aF33.596450805700002
aF26.668699264499999
aF57.485534668
aF31.8356018066
aF25.834022522000001
aF57.490272521999998
aF31.134607315099998
aF26.745727539099999
aF58.461593627900001
aF32.3146362305
aF27.592523574800001
aF57.271152496299997
aF31.298301696799999
aF26.297698974599999
aF52.498535156199999
aF32.707599639900003
aF27.313697814899999
aF52.136531829799999
aF32.105602264399998
aF25.3056983948
aF51.657531738300001
aF32.947601318399997
aF24.484182357800002
aF51.950531005899997
aF33.456878662100003
aF25.3736991882
aF50.279533386200001
aF32.480602264399998
aF26.413839340199999
aF49.954017639200003
aF32.496311187700002
aF24.786909103399999
aF49.651790618900002
aF33.151210784900002
aF24.834699630700001
aF50.136531829799999
aF31.075601577800001
aF24.0576992035
aF50.977531433099998
aF30.575601577800001
aF25.206699371300001
aF49.047534942600002
aF30.428600311299999
aF25.937852859500001
aF48.485576629599997
aF30.840570449800001
aF24.720699310299999
aF48.685531616200002
aF29.098600387600001
aF23.806165695200001
aF49.227531433099998
aF28.857843399
aF25.733697891199999
aF48.8835334778
aF27.9406013489
aF25.894384384199999
aF49.956569671600001
aF27.836324691800002
aF27.079698562600001
aF48.184532165500002
aF28.155601501500001
aF26.950167590127773
aF47.108289426786996
aF28.254978142485939
aF27.728567123400001
aF48.373592376700003
aF27.300424575800001
aF27.556142655512879
aF48.565375481203205
aF29.053310212868549
aF25.116699218800001
aF48.439533233600002
aF26.591600418100001
aF24.2262954712
aF49.033573150599999
aF26.385692596399998
aF25.843753814700001
aF48.586757659900002
aF25.7929668427
aF24.845094680799999
aF47.385272979699998
aF26.645177841199999
aF24.192699432400001
aF47.244533538799999
aF29.175600051899998
aF24.938697814899999
aF46.342533111599998
aF29.526601791400001
aF22.917697906499999
aF47.069534301799997
aF28.8406009674
aF22.347684860200001
aF47.845638275100001
aF28.535894393900001
aF22.300699234
aF45.732532501199998
aF28.905601501500001
aF22.417007446300001
aF45.231761932399998
aF27.944456100499998
aF22.789224624599999
aF45.144489288300001
aF29.682548522899999
aF20.832698822000001
aF45.844532012899997
aF29.225601196300001
aF20.202697753900001
aF46.894535064700001
aF29.026601791400001
aF20.4826984406
aF44.2725334167
aF35.111602783199999
aF19.8347072601
aF44.624645233199999
aF34.421508789100002
aF21.4326992035
aF45.210533142099997
aF35.714599609399997
aF22.178300857499998
aF44.6580200195
aF36.286357879599997
aF22.157699585
aF46.039531707800002
aF34.627601623499999
aF21.3504428864
aF46.560272216800001
aF34.112556457499998
aF22.821054458599999
aF46.7686271667
aF35.092876434300003
aF22.9476985931
aF45.201534271200003
aF33.6206016541
aF22.266408920300002
aF44.539707183799997
aF33.085872650100001
aF23.645698547399999
aF46.120532989499999
aF32.627601623499999
aF24.327547073400002
aF46.782390594500001
aF33.161575317400001
aF24.207998275800001
aF45.521892547599997
aF31.9109783173
aF22.902000427200001
aF46.716220855700001
aF32.098293304400002
aF23.9266986847
aF44.289531707800002
aF34.330600738500003
aF23.3825569153
aF43.6186561584
aF34.995380401600002
aF24.477222442599999
aF43.703361511200001
aF33.594783782999997
aF24.625825882000001
aF44.889354705800002
aF34.913295745799999
aF20.824699401899998
aF46.1535339355
aF36.734600067099997
aF21.583698272700001
aF46.854534149199999
aF37.422599792500002
aF25.407699585
aF50.071533203100003
aF23.0846004486
aF25.626903533899998
aF49.194679260299999
aF22.633850097700002
aF26.468698501599999
aF51.052532196000001
aF23.235601425199999
aF26.4278697968
aF51.445697784399997
aF24.251401901200001
aF27.849699020399999
aF50.3995323181
aF23.0146007538
aF28.619194030799999
aF51.168434143100001
aF23.083652496300001
aF28.1076984406
aF49.334533691399997
aF24.054601669299998
aF27.338815689099999
aF48.564994812000002
aF23.985851287799999
aF29.0860919952
aF48.8863449097
aF23.881471633899999
aF28.084594726599999
aF49.782779693599998
aF25.0478992462
aF27.8716983795
aF49.766532897899999
aF21.737600326500001
aF28.729604721099999
aF49.359291076700003
aF21.597068786600001
aF26.358697891199999
aF52.233531951899998
aF22.302600860599998
aF27.0696983337
aF53.248535156199999
aF22.503601074199999
aF26.135698318500001
aF55.396533966100002
aF24.244600296000002
aF26.222589492800001
aF54.515430450399997
aF23.758592605600001
aF27.3026981354
aF55.932533264200003
aF24.9036006927
aF27.034706115700001
aF56.389266967799998
aF25.856319427500001
aF28.259698867800001
aF54.803531646700002
aF25.164600372300001
aF28.291427612300001
aF54.219322204599997
aF24.244934082
aF29.205364227299999
aF55.330238342299999
aF25.292652130099999
aF28.033699035600002
aF53.877532959
aF26.343601226800001
aF28.597698211699999
aF52.602531433099998
aF26.300600051899998
aF29.175592422499999
aF52.319389343300003
aF25.420846939099999
aF28.435699462900001
aF51.694534301799997
aF27.353601455700002
aF28.7977581024
aF50.667930603000002
aF27.297912597700002
aF27.7286987305
aF52.123535156199999
aF28.473600387600001
aF27.645698547399999
aF51.240531921399999
aF29.538600921600001
aF28.0995521545
aF50.410736084
aF29.3741168976
aF27.2006988525
aF53.3785324097
aF28.5356006622
aF26.664716720600001
aF53.676445007300003
aF29.436752319299998
aF27.334699630700001
aF54.2725334167
aF27.478601455700002
aF26.894676208500002
aF55.267410278299998
aF27.5471420288
aF27.9236984253
aF56.983531951899998
aF23.987600326500001
aF28.914699554399999
aF56.777534484900002
aF23.293600082400001
aF32.18265775007157
aF43.205415672984195
aF31.085502109850285
aF40.454946742165433
aF33.954349925690693
aF29.474772783276883
aF41.346636403104057
aF33.777199322142017
aF29.077987643358714
aF40.67503186013203
aF34.876122371449505
aF29.830471195028831
aF36.8736991882
aF26.585533142100001
aF27.257600784299999
aF37.830898284900002
aF26.585533142100001
aF27.257600784299999
aF36.633708953899998
aF27.512159347499999
aF27.257600784299999
aF25.1806983948
aF44.045532226600002
aF27.987600326500001
aF25.872592925999999
aF44.040912628199997
aF27.2755088806
aF24.9407100677
aF44.972160339399998
aF27.987600326500001
aF42.094977267511737
aF47.399927979672107
aF32.788360929802749
aF42.795762810416079
aF47.039510307711815
aF33.380769062573954
aF42.106517163766391
aF48.335787512808665
aF33.064761540355448
aF26.870426581114078
aF44.7733608056636
aF26.145594253150204
aF27.795507326271586
aF45.027085926567665
aF26.358446152294732
aF26.512710571300001
aF45.595161437999998
aF25.800600051899998
aF25.793027825700189
aF40.612244987627911
aF34.84130300871513
aF25.847812824272136
aF39.735572839227558
aF35.259928194252311
aF25.081667982525499
aF40.441025372228957
aF34.17240841383223
aF31.64293374417738
aF34.634447517213829
aF31.696812402311949
aF32.368289339932041
aF34.942238624944665
aF32.266349497206591
aF31.527406213698981
aF35.397803370281594
aF31.09488214203796
aF31.37983519724942
aF41.34279348773309
aF30.922620558043967
aF31.448917818309184
aF40.407340323811006
aF30.645022350316697
aF30.497447181635604
aF41.566941649958146
aF30.518806491135187
aF24.766698837300002
aF36.123535156199999
aF30.3386001587
aF25.723897934
aF36.123535156199999
aF30.3386001587
aF24.526710510299999
aF37.050159454300001
aF30.3386001587
aF39.192810703045204
aF39.833817110245683
aF27.460186552438437
aF38.745758541183413
aF39.287577350890501
aF26.778429346663266
aF38.396066432866057
aF40.306321848566505
aF27.821716471744597
aF28.383410340913496
aF39.891322106018315
aF37.183789852402853
aF29.162951806582651
aF39.826258938845925
aF36.597228699106559
aF27.729727743757174
aF39.358725029904861
aF36.686257844608896
aF22.015699386600001
aF42.475532531699997
aF30.2866001129
aF22.9728984833
aF42.475532531699997
aF30.2866001129
aF21.775711059599999
aF43.4021606445
aF30.2866001129
aF26.1246986389
aF47.543533325200002
aF21.771600723300001
aF27.081899642900002
aF47.543533325200002
aF21.771600723300001
aF25.884710311900001
aF48.470161437999998
aF21.771600723300001
aF28.593537662617194
aF40.793891785946563
aF24.694984444909657
aF28.80211559796604
aF39.86097227062978
aF24.898880531069519
aF28.599715725488799
aF40.701536680867939
aF23.682224588265857
aF46.748244680278852
aF41.068162515022109
aF26.813060667239213
aF47.704898834200002
aF41.0045318604
aF26.803600311299999
aF46.52635439839306
aF40.810783522575164
aF27.729700502877591
aF41.0562083282354
aF37.743674939440837
aF35.591428050002762
aF41.73816518178235
aF37.174963944860373
aF35.163961498382619
aF41.019412895802184
aF38.476494938562624
aF34.944447701760723
aF46.1206970215
aF35.110534668
aF27.857601165799998
aF47.077899932900003
aF35.110534668
aF27.857601165799998
aF45.867423937259097
aF35.851481446598299
aF27.2909930410916
aF33.877696991000001
aF35.002532959
aF44.182601928700002
aF34.834899902300002
aF35.002532959
aF44.182601928700002
aF33.637710571299998
aF35.929161071800003
aF44.182601928700002
aF30.98249230880878
aF36.490893565015107
aF29.863995111754626
aF31.334075362239357
aF37.400036297109452
aF29.961703386429381
aF30.72183253338055
aF36.497334968877936
aF28.922182946189167
aF21.3166980743
aF38.152534484900002
aF30.048601150500001
aF22.273899078399999
aF38.152534484900002
aF30.048601150500001
aF21.076709747300001
aF39.079158782999997
aF30.048601150500001
aF24.140699386600001
aF36.152534484900002
aF27.6406002045
aF25.0978984833
aF36.152534484900002
aF27.6406002045
aF23.900711059599999
aF37.079158782999997
aF27.6406002045
aF45.142700195300002
aF30.487533569299998
aF33.905601501500001
aF46.099899292000003
aF30.487533569299998
aF33.905601501500001
aF44.902709960899998
aF31.414159774800002
aF33.905601501500001
aF32.464705827366167
aF38.688435719752007
aF30.430339468164426
aF33.003822769227263
aF37.903989469800884
aF30.723185505327184
aF33.045517403749152
aF39.384330634060404
aF30.855313046258633
aF48.9976997375
aF48.415534973100002
aF32.670600891100001
aF49.954898834200002
aF48.415534973100002
aF32.670600891100001
aF48.757709503199997
aF49.342159271200003
aF32.670600891100001
aF24.4306983948
aF41.922534942600002
aF31.226600647000001
aF24.131704330400002
aF41.585605621299997
aF32.079956054699998
aF24.1907100677
aF42.849159240699997
aF31.226600647000001
aF46.487697601299999
aF47.544532775900002
aF24.3156013489
aF47.444900512700002
aF47.544532775900002
aF24.3156013489
aF46.247711181600003
aF48.471160888699998
aF24.3156013489
aF41.513912130468725
aF36.51816305872012
aF40.215151924455483
aF41.664507021962791
aF35.802178724419242
aF39.536701084995954
aF42.38596263960703
aF36.52583115017503
aF40.63901702197019
aF25.253698349
aF45.157531738300001
aF40.611602783199999
aF26.210899352999999
aF45.157531738300001
aF40.611602783199999
aF25.013710022000001
aF46.084159851099997
aF40.611602783199999
aF46.701698303199997
aF30.792533874499998
aF25.2106018066
aF47.658897399899999
aF30.792533874499998
aF25.2106018066
aF46.461711883500001
aF31.719160080000002
aF25.2106018066
aF43.648978102138052
aF44.765012165121739
aF31.386762570788548
aF43.35432609732996
aF43.832032773327619
aF31.343417497975441
aF42.94675604874471
aF45.165475798819678
aF31.917239083621787
aF35.952673130254929
aF38.371953857642893
aF40.659405050013021
aF36.728754545525192
aF38.397196598667129
aF41.244284764015028
aF35.674279788403084
aF39.312236915291258
aF40.677746161894163
aF37.6287002563
aF37.977531433099998
aF44.627601623499999
aF38.585899353000002
aF37.977531433099998
aF44.627601623499999
aF37.388710021999998
aF38.904159545900001
aF44.627601623499999
aF31.4276981354
aF37.7745323181
aF43.233600616499999
aF32.384899139399998
aF37.7745323181
aF43.233600616499999
aF31.187709808299999
aF38.701160430900003
aF43.233600616499999
aF46.814697265600003
aF30.2585334778
aF29.2116012573
aF47.771900176999999
aF30.2585334778
aF29.2116012573
aF46.5747108459
aF31.185159683199998
aF29.2116012573
aF25.8726978302
aF38.910533905000001
aF40.562599182100001
aF26.829898834200002
aF38.910533905000001
aF40.562599182100001
aF25.632711410500001
aF39.837162017799997
aF40.562599182100001
aF38.600862764399999
aF45.291306387794478
aF41.554225259156759
aF39.131520570003069
aF44.924705774014598
aF42.29209744460654
aF37.754451950209081
aF45.470393137957565
aF42.0048934753815
aF32.247992089477627
aF43.701380383605127
aF33.01075972587077
aF33.116322170998856
aF44.104210494249955
aF33.257309747350298
aF31.659896870800651
aF44.417452069641215
aF33.392716532314878
aF38.398245450147307
aF34.413097122441712
aF32.446854794051688
aF39.293282215885327
aF34.849627449176921
aF32.403892407899384
aF37.873606450682615
aF35.166255997491902
aF32.790716402308355
aF47.166698455800002
aF30.396533966100002
aF31.752601623499999
aF48.123897552499997
aF30.396533966100002
aF31.752601623499999
aF46.9267120361
aF31.3231601715
aF31.752601623499999
aF22.881698608400001
aF42.468532562299998
aF27.555601119999999
aF23.838899612399999
aF42.468532562299998
aF27.555601119999999
aF22.641710281400002
aF43.395160675
aF27.555601119999999
aF26.98294790913716
aF41.90234280330467
aF28.539771734772515
aF27.82324017965578
aF42.083763088053168
aF29.036464909867384
aF26.485727656409242
aF42.716384280391019
aF28.758478734578325
aF46.430852956650526
aF44.11743185311159
aF31.516812605532571
aF47.023477266471012
aF44.88157615474536
aF31.42500113684217
aF45.553635622759614
aF44.531029988653316
aF31.496543684410863
aF34.364700317400001
aF32.569534301799997
aF43.097599029500003
aF35.321899414100002
aF32.569534301799997
aF43.097599029500003
aF34.124710082999997
aF33.496158599899999
aF43.097599029500003
aF48.321697235099997
aF46.2575340271
aF31.0376014709
aF49.2789001465
aF46.2575340271
aF31.0376014709
aF48.081710815400001
aF47.184162139900003
aF31.0376014709
aF29.5696983337
aF39.477531433099998
aF42.175601959200002
aF30.5268993378
aF39.477531433099998
aF42.175601959200002
aF29.329710006700001
aF40.404159545900001
aF42.175601959200002
aF36.473697662399999
aF40.3765335083
aF45.210601806600003
aF37.430900573700001
aF40.3765335083
aF45.210601806600003
aF36.233711242699997
aF41.303161621100003
aF45.210601806600003
aF41.089061147996432
aF40.007741356414435
aF37.183222818771597
aF41.182369978387499
aF39.045398931984252
aF37.020457939672575
aF40.984388164360311
aF40.320263147263454
aF36.256515571103016
aF37.039699554400002
aF32.448532104500003
aF44.075599670400003
aF37.996898651099997
aF32.448532104500003
aF44.075599670400003
aF36.7997093201
aF33.375160217299999
aF44.075599670400003
aF47.080622832283986
aF35.87285803610397
aF31.361424702623868
aF47.451900482200003
aF35.646533966100002
aF30.488601684599999
aF47.190393109828257
aF36.848264430085521
aF31.341231727121126
aF28.503346824131079
aF38.483898964517344
aF39.512095825113597
aF28.896912361634374
aF37.667414537027106
aF39.162953235991218
aF28.435414232816694
aF39.026601842863364
aF38.700312758013808
aF22.830698013300001
aF45.5015335083
aF23.425600051899998
aF23.787899017299999
aF45.5015335083
aF23.425600051899998
aF22.590711593599998
aF46.428161621100003
aF23.425600051899998
aF41.335490935829256
aF42.008046728517002
aF38.94533952902092
aF41.261067655317198
aF41.213046293578707
aF38.356903535732229
aF42.313266369703818
aF42.016875156877369
aF39.063359888199486
aF26.29006223067536
aF40.867797688238305
aF26.146681016527801
aF27.059945357604605
aF41.044159582927989
aF25.554644476673293
aF26.625058086053379
aF41.295576994075127
aF26.970974925134144
aF39.797698974600003
aF39.324531555199997
aF44.772602081300001
aF40.754898071299998
aF39.324531555199997
aF44.772602081300001
aF39.5577125549
aF40.251159668
aF44.772602081300001
aF31.386697769200001
aF43.196533203100003
aF18.680601119999999
aF32.343898773200003
aF43.196533203100003
aF18.680601119999999
aF31.146711349499999
aF44.123161315899999
aF18.680601119999999
aF25.132698059100001
aF38.458534240699997
aF27.002601623499999
aF25.674030303999999
aF38.354774475100001
aF26.2047424316
aF24.892711639400002
aF39.385158538799999
aF27.002601623499999
aF48.652698516800001
aF48.090534210199998
aF25.922601699800001
aF49.609897613500003
aF48.090534210199998
aF25.922601699800001
aF48.4127120972
aF49.0171585083
aF25.922601699800001
aF25.597698211699999
aF45.488533019999998
aF23.416601181000001
aF26.554899215700001
aF45.488533019999998
aF23.416601181000001
aF25.357709884599998
aF46.415161132800002
aF23.416601181000001
aF31.407699585
aF38.443534851099997
aF46.042602539100002
aF32.364898681600003
aF38.443534851099997
aF46.042602539100002
aF31.167711257899999
aF39.370159149199999
aF46.042602539100002
aF47.825681688988887
aF41.394796882643455
aF34.211826109838526
aF48.773899078399999
aF41.275531768800001
aF34.109600067099997
aF47.802299143000944
aF42.259000857027615
aF34.71068616077995
aF38.936300514342093
aF43.165887971681457
aF38.824407874152691
aF39.831465711786549
aF42.738879546839179
aF38.818263782781813
aF39.131055123164046
aF43.958060718152829
aF39.351169151596658
aF49.553699493400003
aF39.400531768800001
aF34.665599823000001
aF50.510898590099998
aF39.400531768800001
aF34.665599823000001
aF49.313709258999999
aF40.327159881599997
aF34.665599823000001
aF24.8236980438
aF37.250534057599999
aF22.873600006099998
aF25.7808990479
aF37.250534057599999
aF22.873600006099998
aF24.583711624100001
aF38.177162170400003
aF22.873600006099998
aF39.132698059100001
aF31.0255336761
aF43.085601806600003
aF40.089897155800003
aF31.0255336761
aF43.085601806600003
aF38.892711639399998
aF31.9521598816
aF43.085601806600003
aF42.783662514386471
aF36.193666278157416
aF34.223816364615374
aF42.71056174383245
aF36.846262311263487
aF33.440662946881282
aF42.086875921976123
aF35.574204682927764
aF33.869975921967097
aF23.4976978302
aF45.122531890899999
aF38.593601226799997
aF24.454898834200002
aF45.122531890899999
aF38.593601226799997
aF23.257711410500001
aF46.049160003700003
aF38.593601226799997
aF44.626405501279528
aF34.96787704052123
aF35.852606276964472
aF44.176738208718888
aF34.527227210761254
aF36.63801779069496
aF43.826153720600153
aF35.341660973528867
aF35.419337535885731
aF34.141400327839158
aF37.652534728123833
aF42.755947773391348
aF34.891418457
aF37.035087585399999
aF43.0374107361
aF34.592365725367749
aF38.011900581497699
aF41.952872713047405
aF47.644699096700002
aF33.438533782999997
aF26.2646007538
aF48.601898193399997
aF33.438533782999997
aF26.2646007538
aF47.404708862299998
aF34.3651618958
aF26.2646007538
aF40.066699981699998
aF35.5035324097
aF43.868602752699999
aF41.023899078399999
aF35.5035324097
aF43.868602752699999
aF39.826709747300001
aF36.430160522500003
aF43.868602752699999
aF34.341697692899999
aF40.8825340271
aF19.241600036600001
aF35.2989006042
aF40.8825340271
aF19.241600036600001
aF34.101711273200003
aF41.809162139900003
aF19.241600036600001
aF23.581699371300001
aF40.296531677200001
aF26.045600891100001
aF24.538898467999999
aF40.296531677200001
aF26.045600891100001
aF23.341711044299998
aF41.223159789999997
aF26.045600891100001
aF44.821261187759156
aF40.551384025902372
aF41.623997554177876
aF45.383899688699998
aF41.048534393300002
aF41.0146026611
aF44.793094706995987
aF41.177785430495376
aF42.38481549454432
aF28.386697769200001
aF41.885532379200001
aF42.948600769000002
aF29.343898773199999
aF41.885532379200001
aF42.948600769000002
aF28.146711349499999
aF42.812160491900002
aF42.948600769000002
aF47.237697601299999
aF38.534534454300001
aF25.971601486200001
aF48.194900512700002
aF38.534534454300001
aF25.971601486200001
aF46.997711181600003
aF39.461158752400003
aF25.971601486200001
aF37.041534691729957
aF40.807950323976705
aF38.371823970089061
aF37.651036609884066
aF41.498968376921802
aF38.083052361967468
aF36.332394379591797
aF40.863766696924046
aF37.70638005739098
aF49.411697387700002
aF46.980533599899999
aF28.428600311299999
aF50.368900299099998
aF46.980533599899999
aF28.428600311299999
aF49.171710967999999
aF47.907161712600001
aF28.428600311299999
aF22.634698867800001
aF37.229534149199999
aF38.685600280800003
aF23.591897964499999
aF37.229534149199999
aF38.685600280800003
aF22.394710540799998
aF38.156158447300001
aF38.685600280800003
aF27.404699325599999
aF34.941532135000003
aF42.2625999451
aF28.361898422199999
aF34.941532135000003
aF42.2625999451
aF27.164710998499999
aF35.868160247799999
aF42.2625999451
aF33.619947681056381
aF35.225652839415687
aF33.637683677396581
aF34.121830626756406
aF34.829813125447373
aF34.391377123212514
aF33.060990818593361
aF35.861614644246103
aF34.148380604561048
aF26.949699401899998
aF38.101531982399997
aF25.0356006622
aF26.995695114099998
aF37.8441696167
aF24.117841720600001
aF26.709711074800001
aF39.028160095200001
aF25.0356006622
aF49.217697143599999
aF42.622531890899999
aF23.200601577800001
aF50.1749000549
aF42.622531890899999
aF23.200601577800001
aF48.977710723900003
aF43.549160003700003
aF23.200601577800001
aF45.388698577900001
aF32.3985328674
aF35.846599578899998
aF46.345897674600003
aF32.3985328674
aF35.846599578899998
aF45.148712158199999
aF33.325160980200003
aF35.846599578899998
aF24.518699646000002
aF43.071533203100003
aF42.131599426299999
aF25.4758987427
aF43.071533203100003
aF42.131599426299999
aF24.278711318999999
aF43.998161315899999
aF42.131599426299999
aF47.425697326700003
aF33.321533203100003
aF31.978601455700002
aF48.382900237999998
aF33.321533203100003
aF31.978601455700002
aF47.185710907000001
aF34.248161315899999
aF31.978601455700002
aF48.770698547400002
aF32.069534301799997
aF28.7816009521
aF49.727897644000002
aF32.069534301799997
aF28.7816009521
aF48.530712127699999
aF32.996158599899999
aF28.7816009521
aF48.459697723399998
aF37.963531494100003
aF30.049600601200002
aF49.4168968201
aF37.963531494100003
aF30.049600601200002
aF48.219711303700002
aF38.890159606899999
aF30.049600601200002
aF47.136699676500001
aF38.765533447300001
aF40.419601440400001
aF48.093898773200003
aF38.765533447300001
aF40.419601440400001
aF46.896709442099997
aF39.692161560099997
aF40.419601440400001
aF44.656856536900001
aF35.717636108400001
aF42.301284789999997
aF44.6741294861
aF36.168502807599999
aF43.145469665500002
aF44.408412933299999
aF34.818202972400002
aF42.514629364000001
aF43.054813385000003
aF33.355678558299999
aF43.261207580600001
aF42.271991729699998
aF33.830226898200003
aF43.540882110600002
aF42.761104583700003
aF32.451160430900003
aF43.1525268555
asS'shape'
p7
(lp8
I2173
aI3
asS'storage'
p9
S'RowMajor'
p10
sb.